;--------------------------------------------------------
; File Created by SDCC : free open source ANSI-C Compiler
; Version 2.9.4 #5595 (Oct 23 2013) (Mac OS X ppc)
; This file was generated Wed Oct 23 12:26:11 2013
;--------------------------------------------------------
	.module _fsmul
	.optsdcc -mgbz80
	
;--------------------------------------------------------
; Public variables in this module
;--------------------------------------------------------
	.globl ___fsmul
;--------------------------------------------------------
;  ram data
;--------------------------------------------------------
	.area _DATA
;--------------------------------------------------------
; overlayable items in  ram 
;--------------------------------------------------------
	.area _OVERLAY
;--------------------------------------------------------
; external initialized ram data
;--------------------------------------------------------
;--------------------------------------------------------
; global & static initialisations
;--------------------------------------------------------
	.area _HOME
	.area _GSINIT
	.area _GSFINAL
	.area _GSINIT
;--------------------------------------------------------
; Home
;--------------------------------------------------------
	.area _HOME
	.area _HOME
;--------------------------------------------------------
; code
;--------------------------------------------------------
	.area _CODE
;../_fsmul.c:231: float __fsmul (float a1, float a2) {
;	---------------------------------
; Function __fsmul
; ---------------------------------
___fsmul_start::
___fsmul:
	lda	sp,-27(sp)
;../_fsmul.c:237: fl1.f = a1;
	lda	hl,23(sp)
	ld	c,l
	ld	b,h
	ld	e,c
	ld	d,b
	lda	hl,29(sp)
	ld	a,(hl)
	ld	(de),a
	inc	de
	inc	hl
	ld	a,(hl)
	ld	(de),a
	inc	de
	inc	hl
	ld	a,(hl)
	ld	(de),a
	inc	de
	inc	hl
	ld	a,(hl)
	ld	(de),a
;../_fsmul.c:238: fl2.f = a2;
	lda	hl,19(sp)
	ld	c,l
	ld	b,h
	ld	e,c
	ld	d,b
	lda	hl,33(sp)
	ld	a,(hl)
	ld	(de),a
	inc	de
	inc	hl
	ld	a,(hl)
	ld	(de),a
	inc	de
	inc	hl
	ld	a,(hl)
	ld	(de),a
	inc	de
	inc	hl
	ld	a,(hl)
	ld	(de),a
;../_fsmul.c:240: if (!fl1.l || !fl2.l)
	lda	hl,23(sp)
	ld	c,l
	ld	b,h
	ld	e,c
	ld	d,b
	ld	a,(de)
	lda	hl,8(sp)
	ld	(hl+),a
	inc	de
	ld	a,(de)
	ld	(hl+),a
	inc	de
	ld	a,(de)
	ld	(hl+),a
	inc	de
	ld	a,(de)
	ld	(hl),a
	lda	hl,8(sp)
	ld	a,(hl+)
	or	a,(hl)
	inc	hl
	or	a,(hl)
	inc	hl
	or	a,(hl)
	jp	Z,00101$
	lda	hl,19(sp)
	ld	c,l
	ld	b,h
	ld	e,c
	ld	d,b
	ld	a,(de)
	lda	hl,8(sp)
	ld	(hl+),a
	inc	de
	ld	a,(de)
	ld	(hl+),a
	inc	de
	ld	a,(de)
	ld	(hl+),a
	inc	de
	ld	a,(de)
	ld	(hl),a
	lda	hl,8(sp)
	ld	a,(hl+)
	or	a,(hl)
	inc	hl
	or	a,(hl)
	inc	hl
	or	a,(hl)
	jp	NZ,00102$
00101$:
;../_fsmul.c:241: return (0);
	ld	de,#0x0000
	ld	hl,#0x0000
	jp	00113$
00102$:
;../_fsmul.c:244: sign = SIGN (fl1.l) ^ SIGN (fl2.l);
	lda	hl,23(sp)
	ld	c,l
	ld	b,h
	ld	e,c
	ld	d,b
	ld	a,(de)
	lda	hl,8(sp)
	ld	(hl+),a
	inc	de
	ld	a,(de)
	ld	(hl+),a
	inc	de
	ld	a,(de)
	ld	(hl+),a
	inc	de
	ld	a,(de)
	ld	(hl),a
	rlc	a
	and	a,#0x01
	lda	hl,8(sp)
	ld	(hl),a
	lda	hl,19(sp)
	ld	c,l
	ld	b,h
	ld	e,c
	ld	d,b
	ld	a,(de)
	lda	hl,4(sp)
	ld	(hl+),a
	inc	de
	ld	a,(de)
	ld	(hl+),a
	inc	de
	ld	a,(de)
	ld	(hl+),a
	inc	de
	ld	a,(de)
	ld	(hl),a
	rlc	a
	and	a,#0x01
	inc	hl
	xor	a,(hl)
	lda	hl,12(sp)
	ld	(hl),a
;../_fsmul.c:245: exp = EXP (fl1.l) - EXCESS;
	lda	hl,23(sp)
	ld	c,l
	ld	b,h
	ld	e,c
	ld	d,b
	ld	a,(de)
	lda	hl,4(sp)
	ld	(hl+),a
	inc	de
	ld	a,(de)
	ld	(hl+),a
	inc	de
	ld	a,(de)
	ld	(hl+),a
	inc	de
	ld	a,(de)
	ld	(hl),a
	ld	a,#0x17
	push	af
	inc	sp
	dec	hl
	ld	a,(hl+)
	ld	h,(hl)
	ld	l,a
	push	hl
	lda	hl,7(sp)
	ld	a,(hl+)
	ld	h,(hl)
	ld	l,a
	push	hl
	call	__rrulong_rrx_s
	lda	sp,5(sp)
	push	hl
	lda	hl,6(sp)
	ld	(hl),e
	inc	hl
	ld	(hl),d
	pop	de
	inc	hl
	ld	(hl),e
	inc	hl
	ld	(hl),d
	lda	hl,5(sp)
	ld	(hl),#0x00
	inc	hl
	ld	(hl),#0x00
	inc	hl
	ld	(hl),#0x00
	dec	hl
	dec	hl
	dec	hl
	ld	e,(hl)
	inc	hl
	ld	d,(hl)
	ld	a,e
	sub	a,#0x7E
	ld	e,a
	ld	a,d
	sbc	a,#0x00
	push	af
	ld	(hl-),a
	ld	(hl),e
	lda	hl,9(sp)
	dec	hl
	ld	e,(hl)
	inc	hl
	ld	d,(hl)
	pop	af
	ld	a,e
	sbc	a,#0x00
	ld	e,a
	ld	a,d
	sbc	a,#0x00
	ld	(hl-),a
	ld	(hl),e
	dec	hl
	dec	hl
	ld	a,(hl)
	lda	hl,13(sp)
	ld	(hl),a
	lda	hl,5(sp)
	ld	a,(hl)
	lda	hl,14(sp)
	ld	(hl),a
;../_fsmul.c:246: exp += EXP (fl2.l);
	lda	hl,19(sp)
	ld	c,l
	ld	b,h
	ld	e,c
	ld	d,b
	ld	a,(de)
	lda	hl,4(sp)
	ld	(hl+),a
	inc	de
	ld	a,(de)
	ld	(hl+),a
	inc	de
	ld	a,(de)
	ld	(hl+),a
	inc	de
	ld	a,(de)
	ld	(hl),a
	ld	a,#0x17
	push	af
	inc	sp
	dec	hl
	ld	a,(hl+)
	ld	h,(hl)
	ld	l,a
	push	hl
	lda	hl,7(sp)
	ld	a,(hl+)
	ld	h,(hl)
	ld	l,a
	push	hl
	call	__rrulong_rrx_s
	lda	sp,5(sp)
	push	hl
	lda	hl,6(sp)
	ld	(hl),e
	inc	hl
	ld	(hl),d
	pop	de
	inc	hl
	ld	(hl),e
	inc	hl
	ld	(hl),d
	lda	hl,5(sp)
	ld	(hl),#0x00
	inc	hl
	ld	(hl),#0x00
	inc	hl
	ld	(hl),#0x00
	lda	hl,13(sp)
	ld	a,(hl)
	lda	hl,8(sp)
	ld	(hl),a
	lda	hl,14(sp)
	ld	a,(hl)
	lda	hl,9(sp)
	ld	(hl),a
	lda	hl,14(sp)
	ld	a,(hl)
	rla	
	sbc	a,a
	lda	hl,10(sp)
	ld	(hl+),a
	ld	(hl-),a
	dec	hl
	dec	hl
	ld	e,(hl)
	inc	hl
	ld	d,(hl)
	ld	a,e
	lda	hl,4(sp)
	add	a,(hl)
	ld	e,a
	ld	a,d
	inc	hl
	adc	a,(hl)
	push	af
	ld	(hl-),a
	ld	(hl),e
	lda	hl,13(sp)
	dec	hl
	ld	e,(hl)
	inc	hl
	ld	d,(hl)
	lda	hl,8(sp)
	pop	af
	ld	a,e
	adc	a,(hl)
	ld	e,a
	ld	a,d
	inc	hl
	adc	a,(hl)
	ld	(hl-),a
	ld	(hl),e
	dec	hl
	dec	hl
	ld	a,(hl)
	lda	hl,13(sp)
	ld	(hl),a
	lda	hl,5(sp)
	ld	a,(hl)
	lda	hl,14(sp)
	ld	(hl),a
;../_fsmul.c:248: fl1.l = MANT (fl1.l);
	lda	hl,23(sp)
	ld	a,l
	ld	d,h
	lda	hl,4(sp)
	ld	(hl+),a
	ld	(hl),d
	lda	hl,23(sp)
	ld	c,l
	ld	b,h
	ld	e,c
	ld	d,b
	ld	a,(de)
	lda	hl,8(sp)
	ld	(hl+),a
	inc	de
	ld	a,(de)
	ld	(hl+),a
	inc	de
	ld	a,(de)
	ld	(hl+),a
	inc	de
	ld	a,(de)
	ld	(hl-),a
	ld	a,(hl)
	and	a,#0x7F
	ld	(hl+),a
	ld	(hl),#0x00
	dec	hl
	ld	a,(hl)
	or	a,#0x80
	ld	(hl),a
	lda	hl,5(sp)
	dec	hl
	ld	e,(hl)
	inc	hl
	ld	d,(hl)
	lda	hl,8(sp)
	ld	a,(hl)
	ld	(de),a
	inc	de
	inc	hl
	ld	a,(hl)
	ld	(de),a
	inc	de
	inc	hl
	ld	a,(hl)
	ld	(de),a
	inc	de
	inc	hl
	ld	a,(hl)
	ld	(de),a
;../_fsmul.c:249: fl2.l = MANT (fl2.l);
	lda	hl,19(sp)
	ld	a,l
	ld	d,h
	lda	hl,4(sp)
	ld	(hl+),a
	ld	(hl),d
	lda	hl,19(sp)
	ld	c,l
	ld	b,h
	ld	e,c
	ld	d,b
	ld	a,(de)
	lda	hl,8(sp)
	ld	(hl+),a
	inc	de
	ld	a,(de)
	ld	(hl+),a
	inc	de
	ld	a,(de)
	ld	(hl+),a
	inc	de
	ld	a,(de)
	ld	(hl-),a
	ld	a,(hl)
	and	a,#0x7F
	ld	(hl+),a
	ld	(hl),#0x00
	dec	hl
	ld	a,(hl)
	or	a,#0x80
	ld	(hl),a
	lda	hl,5(sp)
	dec	hl
	ld	e,(hl)
	inc	hl
	ld	d,(hl)
	lda	hl,8(sp)
	ld	a,(hl)
	ld	(de),a
	inc	de
	inc	hl
	ld	a,(hl)
	ld	(de),a
	inc	de
	inc	hl
	ld	a,(hl)
	ld	(de),a
	inc	de
	inc	hl
	ld	a,(hl)
	ld	(de),a
;../_fsmul.c:252: result = (fl1.l >> 8) * (fl2.l >> 8);
	lda	hl,23(sp)
	ld	c,l
	ld	b,h
	ld	e,c
	ld	d,b
	ld	a,(de)
	lda	hl,4(sp)
	ld	(hl+),a
	inc	de
	ld	a,(de)
	ld	(hl+),a
	inc	de
	ld	a,(de)
	ld	(hl+),a
	inc	de
	ld	a,(de)
	ld	(hl),a
	ld	a,#0x08
	push	af
	inc	sp
	dec	hl
	ld	a,(hl+)
	ld	h,(hl)
	ld	l,a
	push	hl
	lda	hl,7(sp)
	ld	a,(hl+)
	ld	h,(hl)
	ld	l,a
	push	hl
	call	__rrulong_rrx_s
	lda	sp,5(sp)
	push	hl
	lda	hl,6(sp)
	ld	(hl),e
	inc	hl
	ld	(hl),d
	pop	de
	inc	hl
	ld	(hl),e
	inc	hl
	ld	(hl),d
	lda	hl,19(sp)
	ld	c,l
	ld	b,h
	ld	e,c
	ld	d,b
	ld	a,(de)
	lda	hl,8(sp)
	ld	(hl+),a
	inc	de
	ld	a,(de)
	ld	(hl+),a
	inc	de
	ld	a,(de)
	ld	(hl+),a
	inc	de
	ld	a,(de)
	ld	(hl),a
	ld	a,#0x08
	push	af
	inc	sp
	dec	hl
	ld	a,(hl+)
	ld	h,(hl)
	ld	l,a
	push	hl
	lda	hl,11(sp)
	ld	a,(hl+)
	ld	h,(hl)
	ld	l,a
	push	hl
	call	__rrulong_rrx_s
	lda	sp,5(sp)
	push	hl
	lda	hl,10(sp)
	ld	(hl),e
	inc	hl
	ld	(hl),d
	pop	de
	inc	hl
	ld	(hl),e
	inc	hl
	ld	(hl),d
	lda	hl,10(sp)
	ld	a,(hl+)
	ld	h,(hl)
	ld	l,a
	push	hl
	lda	hl,10(sp)
	ld	a,(hl+)
	ld	h,(hl)
	ld	l,a
	push	hl
	lda	hl,10(sp)
	ld	a,(hl+)
	ld	h,(hl)
	ld	l,a
	push	hl
	lda	hl,10(sp)
	ld	a,(hl+)
	ld	h,(hl)
	ld	l,a
	push	hl
	call	__mullong_rrx_s
	lda	sp,8(sp)
	push	hl
	lda	hl,6(sp)
	ld	(hl),e
	inc	hl
	ld	(hl),d
	pop	de
	inc	hl
	ld	(hl),e
	inc	hl
	ld	(hl),d
	lda	hl,4(sp)
	ld	d,h
	ld	e,l
	lda	hl,15(sp)
	ld	a,(de)
	ld	(hl+),a
	inc	de
	ld	a,(de)
	ld	(hl+),a
	inc	de
	ld	a,(de)
	ld	(hl+),a
	inc	de
	ld	a,(de)
	ld	(hl),a
;../_fsmul.c:253: result += ((fl1.l & (unsigned long) 0xFF) * (fl2.l >> 8)) >> 8;
	lda	hl,23(sp)
	ld	c,l
	ld	b,h
	ld	e,c
	ld	d,b
	ld	a,(de)
	lda	hl,4(sp)
	ld	(hl+),a
	inc	de
	ld	a,(de)
	ld	(hl+),a
	inc	de
	ld	a,(de)
	ld	(hl+),a
	inc	de
	ld	a,(de)
	ld	(hl-),a
	dec	hl
	ld	(hl),#0x00
	inc	hl
	ld	(hl),#0x00
	inc	hl
	ld	(hl),#0x00
	lda	hl,19(sp)
	ld	c,l
	ld	b,h
	ld	e,c
	ld	d,b
	ld	a,(de)
	lda	hl,8(sp)
	ld	(hl+),a
	inc	de
	ld	a,(de)
	ld	(hl+),a
	inc	de
	ld	a,(de)
	ld	(hl+),a
	inc	de
	ld	a,(de)
	ld	(hl),a
	ld	a,#0x08
	push	af
	inc	sp
	dec	hl
	ld	a,(hl+)
	ld	h,(hl)
	ld	l,a
	push	hl
	lda	hl,11(sp)
	ld	a,(hl+)
	ld	h,(hl)
	ld	l,a
	push	hl
	call	__rrulong_rrx_s
	lda	sp,5(sp)
	push	hl
	lda	hl,10(sp)
	ld	(hl),e
	inc	hl
	ld	(hl),d
	pop	de
	inc	hl
	ld	(hl),e
	inc	hl
	ld	(hl),d
	lda	hl,10(sp)
	ld	a,(hl+)
	ld	h,(hl)
	ld	l,a
	push	hl
	lda	hl,10(sp)
	ld	a,(hl+)
	ld	h,(hl)
	ld	l,a
	push	hl
	lda	hl,10(sp)
	ld	a,(hl+)
	ld	h,(hl)
	ld	l,a
	push	hl
	lda	hl,10(sp)
	ld	a,(hl+)
	ld	h,(hl)
	ld	l,a
	push	hl
	call	__mullong_rrx_s
	lda	sp,8(sp)
	push	hl
	lda	hl,6(sp)
	ld	(hl),e
	inc	hl
	ld	(hl),d
	pop	de
	inc	hl
	ld	(hl),e
	inc	hl
	ld	(hl),d
	ld	a,#0x08
	push	af
	inc	sp
	lda	hl,7(sp)
	ld	a,(hl+)
	ld	h,(hl)
	ld	l,a
	push	hl
	lda	hl,7(sp)
	ld	a,(hl+)
	ld	h,(hl)
	ld	l,a
	push	hl
	call	__rrulong_rrx_s
	lda	sp,5(sp)
	push	hl
	lda	hl,6(sp)
	ld	(hl),e
	inc	hl
	ld	(hl),d
	pop	de
	inc	hl
	ld	(hl),e
	inc	hl
	ld	(hl),d
	lda	hl,16(sp)
	dec	hl
	ld	e,(hl)
	inc	hl
	ld	d,(hl)
	ld	a,e
	lda	hl,4(sp)
	add	a,(hl)
	ld	e,a
	ld	a,d
	inc	hl
	adc	a,(hl)
	push	af
	lda	hl,18(sp)
	ld	(hl-),a
	ld	(hl),e
	lda	hl,20(sp)
	dec	hl
	ld	e,(hl)
	inc	hl
	ld	d,(hl)
	lda	hl,8(sp)
	pop	af
	ld	a,e
	adc	a,(hl)
	ld	e,a
	ld	a,d
	inc	hl
	adc	a,(hl)
	lda	hl,18(sp)
	ld	(hl-),a
	ld	(hl),e
;../_fsmul.c:254: result += ((fl2.l & (unsigned long) 0xFF) * (fl1.l >> 8)) >> 8;
	lda	hl,19(sp)
	ld	c,l
	ld	b,h
	ld	e,c
	ld	d,b
	ld	a,(de)
	lda	hl,4(sp)
	ld	(hl+),a
	inc	de
	ld	a,(de)
	ld	(hl+),a
	inc	de
	ld	a,(de)
	ld	(hl+),a
	inc	de
	ld	a,(de)
	ld	(hl-),a
	dec	hl
	ld	(hl),#0x00
	inc	hl
	ld	(hl),#0x00
	inc	hl
	ld	(hl),#0x00
	lda	hl,23(sp)
	ld	c,l
	ld	b,h
	ld	e,c
	ld	d,b
	ld	a,(de)
	lda	hl,8(sp)
	ld	(hl+),a
	inc	de
	ld	a,(de)
	ld	(hl+),a
	inc	de
	ld	a,(de)
	ld	(hl+),a
	inc	de
	ld	a,(de)
	ld	(hl),a
	ld	a,#0x08
	push	af
	inc	sp
	dec	hl
	ld	a,(hl+)
	ld	h,(hl)
	ld	l,a
	push	hl
	lda	hl,11(sp)
	ld	a,(hl+)
	ld	h,(hl)
	ld	l,a
	push	hl
	call	__rrulong_rrx_s
	lda	sp,5(sp)
	push	hl
	lda	hl,10(sp)
	ld	(hl),e
	inc	hl
	ld	(hl),d
	pop	de
	inc	hl
	ld	(hl),e
	inc	hl
	ld	(hl),d
	lda	hl,10(sp)
	ld	a,(hl+)
	ld	h,(hl)
	ld	l,a
	push	hl
	lda	hl,10(sp)
	ld	a,(hl+)
	ld	h,(hl)
	ld	l,a
	push	hl
	lda	hl,10(sp)
	ld	a,(hl+)
	ld	h,(hl)
	ld	l,a
	push	hl
	lda	hl,10(sp)
	ld	a,(hl+)
	ld	h,(hl)
	ld	l,a
	push	hl
	call	__mullong_rrx_s
	lda	sp,8(sp)
	push	hl
	lda	hl,6(sp)
	ld	(hl),e
	inc	hl
	ld	(hl),d
	pop	de
	inc	hl
	ld	(hl),e
	inc	hl
	ld	(hl),d
	ld	a,#0x08
	push	af
	inc	sp
	lda	hl,7(sp)
	ld	a,(hl+)
	ld	h,(hl)
	ld	l,a
	push	hl
	lda	hl,7(sp)
	ld	a,(hl+)
	ld	h,(hl)
	ld	l,a
	push	hl
	call	__rrulong_rrx_s
	lda	sp,5(sp)
	push	hl
	lda	hl,6(sp)
	ld	(hl),e
	inc	hl
	ld	(hl),d
	pop	de
	inc	hl
	ld	(hl),e
	inc	hl
	ld	(hl),d
	lda	hl,16(sp)
	dec	hl
	ld	e,(hl)
	inc	hl
	ld	d,(hl)
	ld	a,e
	lda	hl,4(sp)
	add	a,(hl)
	ld	e,a
	ld	a,d
	inc	hl
	adc	a,(hl)
	push	af
	lda	hl,18(sp)
	ld	(hl-),a
	ld	(hl),e
	lda	hl,20(sp)
	dec	hl
	ld	e,(hl)
	inc	hl
	ld	d,(hl)
	lda	hl,8(sp)
	pop	af
	ld	a,e
	adc	a,(hl)
	ld	e,a
	ld	a,d
	inc	hl
	adc	a,(hl)
	lda	hl,18(sp)
	ld	(hl-),a
	ld	(hl),e
;../_fsmul.c:257: result += 0x40;
	dec	hl
	dec	hl
	ld	e,(hl)
	inc	hl
	ld	d,(hl)
	ld	a,e
	add	a,#0x40
	ld	e,a
	ld	a,d
	adc	a,#0x00
	push	af
	ld	(hl-),a
	ld	(hl),e
	lda	hl,20(sp)
	dec	hl
	ld	e,(hl)
	inc	hl
	ld	d,(hl)
	pop	af
	ld	a,e
	adc	a,#0x00
	ld	e,a
	ld	a,d
	adc	a,#0x00
	ld	(hl-),a
	ld	(hl),e
;../_fsmul.c:259: if (result & SIGNBIT)
	inc	hl
	ld	a,(hl)
	and	a,#0x80
	jr	NZ,00125$
	jp	00105$
00125$:
;../_fsmul.c:262: result += 0x40;
	dec	hl
	dec	hl
	dec	hl
	ld	e,(hl)
	inc	hl
	ld	d,(hl)
	ld	a,e
	add	a,#0x40
	ld	e,a
	ld	a,d
	adc	a,#0x00
	push	af
	ld	(hl-),a
	ld	(hl),e
	lda	hl,20(sp)
	dec	hl
	ld	e,(hl)
	inc	hl
	ld	d,(hl)
	pop	af
	ld	a,e
	adc	a,#0x00
	ld	e,a
	ld	a,d
	adc	a,#0x00
	ld	(hl-),a
	ld	(hl),e
;../_fsmul.c:263: result >>= 8;
	ld	a,#0x08
	push	af
	inc	sp
	ld	a,(hl+)
	ld	h,(hl)
	ld	l,a
	push	hl
	lda	hl,18(sp)
	ld	a,(hl+)
	ld	h,(hl)
	ld	l,a
	push	hl
	call	__rrulong_rrx_s
	lda	sp,5(sp)
	push	hl
	lda	hl,6(sp)
	ld	(hl),e
	inc	hl
	ld	(hl),d
	pop	de
	inc	hl
	ld	(hl),e
	inc	hl
	ld	(hl),d
	lda	hl,4(sp)
	ld	d,h
	ld	e,l
	lda	hl,15(sp)
	ld	a,(de)
	ld	(hl+),a
	inc	de
	ld	a,(de)
	ld	(hl+),a
	inc	de
	ld	a,(de)
	ld	(hl+),a
	inc	de
	ld	a,(de)
	ld	(hl),a
	jp	00106$
00105$:
;../_fsmul.c:267: result >>= 7;
	ld	a,#0x07
	push	af
	inc	sp
	lda	hl,18(sp)
	ld	a,(hl+)
	ld	h,(hl)
	ld	l,a
	push	hl
	lda	hl,18(sp)
	ld	a,(hl+)
	ld	h,(hl)
	ld	l,a
	push	hl
	call	__rrulong_rrx_s
	lda	sp,5(sp)
	push	hl
	lda	hl,6(sp)
	ld	(hl),e
	inc	hl
	ld	(hl),d
	pop	de
	inc	hl
	ld	(hl),e
	inc	hl
	ld	(hl),d
	lda	hl,4(sp)
	ld	d,h
	ld	e,l
	lda	hl,15(sp)
	ld	a,(de)
	ld	(hl+),a
	inc	de
	ld	a,(de)
	ld	(hl+),a
	inc	de
	ld	a,(de)
	ld	(hl+),a
	inc	de
	ld	a,(de)
	ld	(hl),a
;../_fsmul.c:268: exp--;
	lda	hl,14(sp)
	dec	hl
	ld	e,(hl)
	inc	hl
	ld	d,(hl)
	dec	de
	dec	hl
	ld	(hl),e
	inc	hl
	ld	(hl),d
00106$:
;../_fsmul.c:271: result &= ~HIDDEN;
	lda	hl,17(sp)
	ld	a,(hl)
	and	a,#0x7F
	ld	(hl),a
;../_fsmul.c:274: if (exp >= 0x100)
	lda	hl,13(sp)
	ld	a,(hl)
	sub	a,#0x00
	inc	hl
	ld	a,(hl)
	sbc	a,#0x01
	rlca
	jp	C,00111$
;../_fsmul.c:275: fl1.l = (sign ? SIGNBIT : 0) | __INFINITY;
	lda	hl,23(sp)
	ld	c,l
	ld	b,h
	xor	a,a
	lda	hl,12(sp)
	or	a,(hl)
	jp	Z,00115$
	lda	hl,4(sp)
	ld	(hl),#0x00
	inc	hl
	ld	(hl),#0x00
	inc	hl
	ld	(hl),#0x00
	inc	hl
	ld	(hl),#0x80
	jp	00116$
00115$:
	xor	a,a
	lda	hl,4(sp)
	ld	(hl+),a
	ld	(hl+),a
	ld	(hl+),a
	ld	(hl),a
00116$:
	lda	hl,6(sp)
	ld	a,(hl)
	or	a,#0x80
	ld	(hl+),a
	ld	a,(hl)
	or	a,#0x7F
	ld	(hl),a
	ld	e,c
	ld	d,b
	lda	hl,4(sp)
	ld	a,(hl)
	ld	(de),a
	inc	de
	inc	hl
	ld	a,(hl)
	ld	(de),a
	inc	de
	inc	hl
	ld	a,(hl)
	ld	(de),a
	inc	de
	inc	hl
	ld	a,(hl)
	ld	(de),a
	jp	00112$
00111$:
;../_fsmul.c:276: else if (exp < 0)
	lda	hl,14(sp)
	ld	a,(hl)
	bit	7,a
	jp	Z,00108$
;../_fsmul.c:277: fl1.l = 0;
	lda	hl,23(sp)
	ld	c,l
	ld	b,h
	ld	e,c
	ld	d,b
	ld	a,#0x00
	ld	(de),a
	inc	de
	ld	a,#0x00
	ld	(de),a
	inc	de
	ld	a,#0x00
	ld	(de),a
	inc	de
	ld	a,#0x00
	ld	(de),a
	jp	00112$
00108$:
;../_fsmul.c:279: fl1.l = PACK (sign ? SIGNBIT : 0 , exp, result);
	lda	hl,23(sp)
	ld	c,l
	ld	b,h
	xor	a,a
	lda	hl,12(sp)
	or	a,(hl)
	jp	Z,00117$
	lda	hl,4(sp)
	ld	(hl),#0x00
	inc	hl
	ld	(hl),#0x00
	inc	hl
	ld	(hl),#0x00
	inc	hl
	ld	(hl),#0x80
	jp	00118$
00117$:
	xor	a,a
	lda	hl,4(sp)
	ld	(hl+),a
	ld	(hl+),a
	ld	(hl+),a
	ld	(hl),a
00118$:
	lda	hl,13(sp)
	ld	a,(hl)
	lda	hl,0(sp)
	ld	(hl),a
	lda	hl,14(sp)
	ld	a,(hl)
	lda	hl,1(sp)
	ld	(hl),a
	lda	hl,14(sp)
	ld	a,(hl)
	rla	
	sbc	a,a
	lda	hl,2(sp)
	ld	(hl+),a
	ld	(hl),a
	push	bc
	ld	a,#0x17
	push	af
	inc	sp
	dec	hl
	ld	a,(hl+)
	ld	h,(hl)
	ld	l,a
	push	hl
	lda	hl,5(sp)
	ld	a,(hl+)
	ld	h,(hl)
	ld	l,a
	push	hl
	call	__rlulong_rrx_s
	lda	sp,5(sp)
	push	hl
	lda	hl,4(sp)
	ld	(hl),e
	inc	hl
	ld	(hl),d
	pop	de
	inc	hl
	ld	(hl),e
	inc	hl
	ld	(hl),d
	pop	bc
	lda	hl,0(sp)
	ld	a,(hl)
	lda	hl,4(sp)
	or	a,(hl)
	lda	hl,0(sp)
	ld	(hl+),a
	ld	a,(hl)
	lda	hl,5(sp)
	or	a,(hl)
	lda	hl,1(sp)
	ld	(hl+),a
	ld	a,(hl)
	lda	hl,6(sp)
	or	a,(hl)
	lda	hl,2(sp)
	ld	(hl+),a
	ld	a,(hl)
	lda	hl,7(sp)
	or	a,(hl)
	lda	hl,3(sp)
	ld	(hl),a
	lda	hl,0(sp)
	ld	a,(hl)
	lda	hl,15(sp)
	or	a,(hl)
	lda	hl,0(sp)
	ld	(hl+),a
	ld	a,(hl)
	lda	hl,16(sp)
	or	a,(hl)
	lda	hl,1(sp)
	ld	(hl+),a
	ld	a,(hl)
	lda	hl,17(sp)
	or	a,(hl)
	lda	hl,2(sp)
	ld	(hl+),a
	ld	a,(hl)
	lda	hl,18(sp)
	or	a,(hl)
	lda	hl,3(sp)
	ld	(hl),a
	ld	e,c
	ld	d,b
	lda	hl,0(sp)
	ld	a,(hl)
	ld	(de),a
	inc	de
	inc	hl
	ld	a,(hl)
	ld	(de),a
	inc	de
	inc	hl
	ld	a,(hl)
	ld	(de),a
	inc	de
	inc	hl
	ld	a,(hl)
	ld	(de),a
00112$:
;../_fsmul.c:280: return (fl1.f);
	lda	hl,23(sp)
	ld	c,l
	ld	b,h
	ld	e,c
	ld	d,b
	ld	a,(de)
	lda	hl,0(sp)
	ld	(hl+),a
	inc	de
	ld	a,(de)
	ld	(hl+),a
	inc	de
	ld	a,(de)
	ld	(hl+),a
	inc	de
	ld	a,(de)
	ld	(hl-),a
	dec	hl
	dec	hl
	ld	e,(hl)
	inc	hl
	ld	d,(hl)
	inc	hl
	ld	a,(hl+)
	ld	h,(hl)
	ld	l,a
00113$:
	lda	sp,27(sp)
	ret
___fsmul_end::
	.area _CODE
	.area _CABS
