                              1 ;--------------------------------------------------------
                              2 ; File Created by SDCC : free open source ANSI-C Compiler
                              3 ; Version 2.9.4 #5595 (Oct 23 2013) (Mac OS X ppc)
                              4 ; This file was generated Wed Oct 23 12:26:11 2013
                              5 ;--------------------------------------------------------
                              6 	.module _fsmul
                              7 	.optsdcc -mgbz80
                              8 	
                              9 ;--------------------------------------------------------
                             10 ; Public variables in this module
                             11 ;--------------------------------------------------------
                             12 	.globl ___fsmul
                             13 ;--------------------------------------------------------
                             14 ;  ram data
                             15 ;--------------------------------------------------------
                             16 	.area _DATA
                             17 ;--------------------------------------------------------
                             18 ; overlayable items in  ram 
                             19 ;--------------------------------------------------------
                             20 	.area _OVERLAY
                             21 ;--------------------------------------------------------
                             22 ; external initialized ram data
                             23 ;--------------------------------------------------------
                             24 ;--------------------------------------------------------
                             25 ; global & static initialisations
                             26 ;--------------------------------------------------------
                             27 	.area _HOME
                             28 	.area _GSINIT
                             29 	.area _GSFINAL
                             30 	.area _GSINIT
                             31 ;--------------------------------------------------------
                             32 ; Home
                             33 ;--------------------------------------------------------
                             34 	.area _HOME
                             35 	.area _HOME
                             36 ;--------------------------------------------------------
                             37 ; code
                             38 ;--------------------------------------------------------
                             39 	.area _CODE
                             40 ;../_fsmul.c:231: float __fsmul (float a1, float a2) {
                             41 ;	---------------------------------
                             42 ; Function __fsmul
                             43 ; ---------------------------------
   0000                      44 ___fsmul_start::
   0000                      45 ___fsmul:
   0000 E8 E5                46 	lda	sp,-27(sp)
                             47 ;../_fsmul.c:237: fl1.f = a1;
   0002 F8 17                48 	lda	hl,23(sp)
   0004 4D                   49 	ld	c,l
   0005 44                   50 	ld	b,h
   0006 59                   51 	ld	e,c
   0007 50                   52 	ld	d,b
   0008 F8 1D                53 	lda	hl,29(sp)
   000A 7E                   54 	ld	a,(hl)
   000B 12                   55 	ld	(de),a
   000C 13                   56 	inc	de
   000D 23                   57 	inc	hl
   000E 7E                   58 	ld	a,(hl)
   000F 12                   59 	ld	(de),a
   0010 13                   60 	inc	de
   0011 23                   61 	inc	hl
   0012 7E                   62 	ld	a,(hl)
   0013 12                   63 	ld	(de),a
   0014 13                   64 	inc	de
   0015 23                   65 	inc	hl
   0016 7E                   66 	ld	a,(hl)
   0017 12                   67 	ld	(de),a
                             68 ;../_fsmul.c:238: fl2.f = a2;
   0018 F8 13                69 	lda	hl,19(sp)
   001A 4D                   70 	ld	c,l
   001B 44                   71 	ld	b,h
   001C 59                   72 	ld	e,c
   001D 50                   73 	ld	d,b
   001E F8 21                74 	lda	hl,33(sp)
   0020 7E                   75 	ld	a,(hl)
   0021 12                   76 	ld	(de),a
   0022 13                   77 	inc	de
   0023 23                   78 	inc	hl
   0024 7E                   79 	ld	a,(hl)
   0025 12                   80 	ld	(de),a
   0026 13                   81 	inc	de
   0027 23                   82 	inc	hl
   0028 7E                   83 	ld	a,(hl)
   0029 12                   84 	ld	(de),a
   002A 13                   85 	inc	de
   002B 23                   86 	inc	hl
   002C 7E                   87 	ld	a,(hl)
   002D 12                   88 	ld	(de),a
                             89 ;../_fsmul.c:240: if (!fl1.l || !fl2.l)
   002E F8 17                90 	lda	hl,23(sp)
   0030 4D                   91 	ld	c,l
   0031 44                   92 	ld	b,h
   0032 59                   93 	ld	e,c
   0033 50                   94 	ld	d,b
   0034 1A                   95 	ld	a,(de)
   0035 F8 08                96 	lda	hl,8(sp)
   0037 22                   97 	ld	(hl+),a
   0038 13                   98 	inc	de
   0039 1A                   99 	ld	a,(de)
   003A 22                  100 	ld	(hl+),a
   003B 13                  101 	inc	de
   003C 1A                  102 	ld	a,(de)
   003D 22                  103 	ld	(hl+),a
   003E 13                  104 	inc	de
   003F 1A                  105 	ld	a,(de)
   0040 77                  106 	ld	(hl),a
   0041 F8 08               107 	lda	hl,8(sp)
   0043 2A                  108 	ld	a,(hl+)
   0044 B6                  109 	or	a,(hl)
   0045 23                  110 	inc	hl
   0046 B6                  111 	or	a,(hl)
   0047 23                  112 	inc	hl
   0048 B6                  113 	or	a,(hl)
   0049 CAr6As00            114 	jp	Z,00101$
   004C F8 13               115 	lda	hl,19(sp)
   004E 4D                  116 	ld	c,l
   004F 44                  117 	ld	b,h
   0050 59                  118 	ld	e,c
   0051 50                  119 	ld	d,b
   0052 1A                  120 	ld	a,(de)
   0053 F8 08               121 	lda	hl,8(sp)
   0055 22                  122 	ld	(hl+),a
   0056 13                  123 	inc	de
   0057 1A                  124 	ld	a,(de)
   0058 22                  125 	ld	(hl+),a
   0059 13                  126 	inc	de
   005A 1A                  127 	ld	a,(de)
   005B 22                  128 	ld	(hl+),a
   005C 13                  129 	inc	de
   005D 1A                  130 	ld	a,(de)
   005E 77                  131 	ld	(hl),a
   005F F8 08               132 	lda	hl,8(sp)
   0061 2A                  133 	ld	a,(hl+)
   0062 B6                  134 	or	a,(hl)
   0063 23                  135 	inc	hl
   0064 B6                  136 	or	a,(hl)
   0065 23                  137 	inc	hl
   0066 B6                  138 	or	a,(hl)
   0067 C2r73s00            139 	jp	NZ,00102$
   006A                     140 00101$:
                            141 ;../_fsmul.c:241: return (0);
   006A 11 00 00            142 	ld	de,#0x0000
   006D 21 00 00            143 	ld	hl,#0x0000
   0070 C3r08s06            144 	jp	00113$
   0073                     145 00102$:
                            146 ;../_fsmul.c:244: sign = SIGN (fl1.l) ^ SIGN (fl2.l);
   0073 F8 17               147 	lda	hl,23(sp)
   0075 4D                  148 	ld	c,l
   0076 44                  149 	ld	b,h
   0077 59                  150 	ld	e,c
   0078 50                  151 	ld	d,b
   0079 1A                  152 	ld	a,(de)
   007A F8 08               153 	lda	hl,8(sp)
   007C 22                  154 	ld	(hl+),a
   007D 13                  155 	inc	de
   007E 1A                  156 	ld	a,(de)
   007F 22                  157 	ld	(hl+),a
   0080 13                  158 	inc	de
   0081 1A                  159 	ld	a,(de)
   0082 22                  160 	ld	(hl+),a
   0083 13                  161 	inc	de
   0084 1A                  162 	ld	a,(de)
   0085 77                  163 	ld	(hl),a
   0086 CB 07               164 	rlc	a
   0088 E6 01               165 	and	a,#0x01
   008A F8 08               166 	lda	hl,8(sp)
   008C 77                  167 	ld	(hl),a
   008D F8 13               168 	lda	hl,19(sp)
   008F 4D                  169 	ld	c,l
   0090 44                  170 	ld	b,h
   0091 59                  171 	ld	e,c
   0092 50                  172 	ld	d,b
   0093 1A                  173 	ld	a,(de)
   0094 F8 04               174 	lda	hl,4(sp)
   0096 22                  175 	ld	(hl+),a
   0097 13                  176 	inc	de
   0098 1A                  177 	ld	a,(de)
   0099 22                  178 	ld	(hl+),a
   009A 13                  179 	inc	de
   009B 1A                  180 	ld	a,(de)
   009C 22                  181 	ld	(hl+),a
   009D 13                  182 	inc	de
   009E 1A                  183 	ld	a,(de)
   009F 77                  184 	ld	(hl),a
   00A0 CB 07               185 	rlc	a
   00A2 E6 01               186 	and	a,#0x01
   00A4 23                  187 	inc	hl
   00A5 AE                  188 	xor	a,(hl)
   00A6 F8 0C               189 	lda	hl,12(sp)
   00A8 77                  190 	ld	(hl),a
                            191 ;../_fsmul.c:245: exp = EXP (fl1.l) - EXCESS;
   00A9 F8 17               192 	lda	hl,23(sp)
   00AB 4D                  193 	ld	c,l
   00AC 44                  194 	ld	b,h
   00AD 59                  195 	ld	e,c
   00AE 50                  196 	ld	d,b
   00AF 1A                  197 	ld	a,(de)
   00B0 F8 04               198 	lda	hl,4(sp)
   00B2 22                  199 	ld	(hl+),a
   00B3 13                  200 	inc	de
   00B4 1A                  201 	ld	a,(de)
   00B5 22                  202 	ld	(hl+),a
   00B6 13                  203 	inc	de
   00B7 1A                  204 	ld	a,(de)
   00B8 22                  205 	ld	(hl+),a
   00B9 13                  206 	inc	de
   00BA 1A                  207 	ld	a,(de)
   00BB 77                  208 	ld	(hl),a
   00BC 3E 17               209 	ld	a,#0x17
   00BE F5                  210 	push	af
   00BF 33                  211 	inc	sp
   00C0 2B                  212 	dec	hl
   00C1 2A                  213 	ld	a,(hl+)
   00C2 66                  214 	ld	h,(hl)
   00C3 6F                  215 	ld	l,a
   00C4 E5                  216 	push	hl
   00C5 F8 07               217 	lda	hl,7(sp)
   00C7 2A                  218 	ld	a,(hl+)
   00C8 66                  219 	ld	h,(hl)
   00C9 6F                  220 	ld	l,a
   00CA E5                  221 	push	hl
   00CB CDr00s00            222 	call	__rrulong_rrx_s
   00CE E8 05               223 	lda	sp,5(sp)
   00D0 E5                  224 	push	hl
   00D1 F8 06               225 	lda	hl,6(sp)
   00D3 73                  226 	ld	(hl),e
   00D4 23                  227 	inc	hl
   00D5 72                  228 	ld	(hl),d
   00D6 D1                  229 	pop	de
   00D7 23                  230 	inc	hl
   00D8 73                  231 	ld	(hl),e
   00D9 23                  232 	inc	hl
   00DA 72                  233 	ld	(hl),d
   00DB F8 05               234 	lda	hl,5(sp)
   00DD 36 00               235 	ld	(hl),#0x00
   00DF 23                  236 	inc	hl
   00E0 36 00               237 	ld	(hl),#0x00
   00E2 23                  238 	inc	hl
   00E3 36 00               239 	ld	(hl),#0x00
   00E5 2B                  240 	dec	hl
   00E6 2B                  241 	dec	hl
   00E7 2B                  242 	dec	hl
   00E8 5E                  243 	ld	e,(hl)
   00E9 23                  244 	inc	hl
   00EA 56                  245 	ld	d,(hl)
   00EB 7B                  246 	ld	a,e
   00EC D6 7E               247 	sub	a,#0x7E
   00EE 5F                  248 	ld	e,a
   00EF 7A                  249 	ld	a,d
   00F0 DE 00               250 	sbc	a,#0x00
   00F2 F5                  251 	push	af
   00F3 32                  252 	ld	(hl-),a
   00F4 73                  253 	ld	(hl),e
   00F5 F8 09               254 	lda	hl,9(sp)
   00F7 2B                  255 	dec	hl
   00F8 5E                  256 	ld	e,(hl)
   00F9 23                  257 	inc	hl
   00FA 56                  258 	ld	d,(hl)
   00FB F1                  259 	pop	af
   00FC 7B                  260 	ld	a,e
   00FD DE 00               261 	sbc	a,#0x00
   00FF 5F                  262 	ld	e,a
   0100 7A                  263 	ld	a,d
   0101 DE 00               264 	sbc	a,#0x00
   0103 32                  265 	ld	(hl-),a
   0104 73                  266 	ld	(hl),e
   0105 2B                  267 	dec	hl
   0106 2B                  268 	dec	hl
   0107 7E                  269 	ld	a,(hl)
   0108 F8 0D               270 	lda	hl,13(sp)
   010A 77                  271 	ld	(hl),a
   010B F8 05               272 	lda	hl,5(sp)
   010D 7E                  273 	ld	a,(hl)
   010E F8 0E               274 	lda	hl,14(sp)
   0110 77                  275 	ld	(hl),a
                            276 ;../_fsmul.c:246: exp += EXP (fl2.l);
   0111 F8 13               277 	lda	hl,19(sp)
   0113 4D                  278 	ld	c,l
   0114 44                  279 	ld	b,h
   0115 59                  280 	ld	e,c
   0116 50                  281 	ld	d,b
   0117 1A                  282 	ld	a,(de)
   0118 F8 04               283 	lda	hl,4(sp)
   011A 22                  284 	ld	(hl+),a
   011B 13                  285 	inc	de
   011C 1A                  286 	ld	a,(de)
   011D 22                  287 	ld	(hl+),a
   011E 13                  288 	inc	de
   011F 1A                  289 	ld	a,(de)
   0120 22                  290 	ld	(hl+),a
   0121 13                  291 	inc	de
   0122 1A                  292 	ld	a,(de)
   0123 77                  293 	ld	(hl),a
   0124 3E 17               294 	ld	a,#0x17
   0126 F5                  295 	push	af
   0127 33                  296 	inc	sp
   0128 2B                  297 	dec	hl
   0129 2A                  298 	ld	a,(hl+)
   012A 66                  299 	ld	h,(hl)
   012B 6F                  300 	ld	l,a
   012C E5                  301 	push	hl
   012D F8 07               302 	lda	hl,7(sp)
   012F 2A                  303 	ld	a,(hl+)
   0130 66                  304 	ld	h,(hl)
   0131 6F                  305 	ld	l,a
   0132 E5                  306 	push	hl
   0133 CDr00s00            307 	call	__rrulong_rrx_s
   0136 E8 05               308 	lda	sp,5(sp)
   0138 E5                  309 	push	hl
   0139 F8 06               310 	lda	hl,6(sp)
   013B 73                  311 	ld	(hl),e
   013C 23                  312 	inc	hl
   013D 72                  313 	ld	(hl),d
   013E D1                  314 	pop	de
   013F 23                  315 	inc	hl
   0140 73                  316 	ld	(hl),e
   0141 23                  317 	inc	hl
   0142 72                  318 	ld	(hl),d
   0143 F8 05               319 	lda	hl,5(sp)
   0145 36 00               320 	ld	(hl),#0x00
   0147 23                  321 	inc	hl
   0148 36 00               322 	ld	(hl),#0x00
   014A 23                  323 	inc	hl
   014B 36 00               324 	ld	(hl),#0x00
   014D F8 0D               325 	lda	hl,13(sp)
   014F 7E                  326 	ld	a,(hl)
   0150 F8 08               327 	lda	hl,8(sp)
   0152 77                  328 	ld	(hl),a
   0153 F8 0E               329 	lda	hl,14(sp)
   0155 7E                  330 	ld	a,(hl)
   0156 F8 09               331 	lda	hl,9(sp)
   0158 77                  332 	ld	(hl),a
   0159 F8 0E               333 	lda	hl,14(sp)
   015B 7E                  334 	ld	a,(hl)
   015C 17                  335 	rla	
   015D 9F                  336 	sbc	a,a
   015E F8 0A               337 	lda	hl,10(sp)
   0160 22                  338 	ld	(hl+),a
   0161 32                  339 	ld	(hl-),a
   0162 2B                  340 	dec	hl
   0163 2B                  341 	dec	hl
   0164 5E                  342 	ld	e,(hl)
   0165 23                  343 	inc	hl
   0166 56                  344 	ld	d,(hl)
   0167 7B                  345 	ld	a,e
   0168 F8 04               346 	lda	hl,4(sp)
   016A 86                  347 	add	a,(hl)
   016B 5F                  348 	ld	e,a
   016C 7A                  349 	ld	a,d
   016D 23                  350 	inc	hl
   016E 8E                  351 	adc	a,(hl)
   016F F5                  352 	push	af
   0170 32                  353 	ld	(hl-),a
   0171 73                  354 	ld	(hl),e
   0172 F8 0D               355 	lda	hl,13(sp)
   0174 2B                  356 	dec	hl
   0175 5E                  357 	ld	e,(hl)
   0176 23                  358 	inc	hl
   0177 56                  359 	ld	d,(hl)
   0178 F8 08               360 	lda	hl,8(sp)
   017A F1                  361 	pop	af
   017B 7B                  362 	ld	a,e
   017C 8E                  363 	adc	a,(hl)
   017D 5F                  364 	ld	e,a
   017E 7A                  365 	ld	a,d
   017F 23                  366 	inc	hl
   0180 8E                  367 	adc	a,(hl)
   0181 32                  368 	ld	(hl-),a
   0182 73                  369 	ld	(hl),e
   0183 2B                  370 	dec	hl
   0184 2B                  371 	dec	hl
   0185 7E                  372 	ld	a,(hl)
   0186 F8 0D               373 	lda	hl,13(sp)
   0188 77                  374 	ld	(hl),a
   0189 F8 05               375 	lda	hl,5(sp)
   018B 7E                  376 	ld	a,(hl)
   018C F8 0E               377 	lda	hl,14(sp)
   018E 77                  378 	ld	(hl),a
                            379 ;../_fsmul.c:248: fl1.l = MANT (fl1.l);
   018F F8 17               380 	lda	hl,23(sp)
   0191 7D                  381 	ld	a,l
   0192 54                  382 	ld	d,h
   0193 F8 04               383 	lda	hl,4(sp)
   0195 22                  384 	ld	(hl+),a
   0196 72                  385 	ld	(hl),d
   0197 F8 17               386 	lda	hl,23(sp)
   0199 4D                  387 	ld	c,l
   019A 44                  388 	ld	b,h
   019B 59                  389 	ld	e,c
   019C 50                  390 	ld	d,b
   019D 1A                  391 	ld	a,(de)
   019E F8 08               392 	lda	hl,8(sp)
   01A0 22                  393 	ld	(hl+),a
   01A1 13                  394 	inc	de
   01A2 1A                  395 	ld	a,(de)
   01A3 22                  396 	ld	(hl+),a
   01A4 13                  397 	inc	de
   01A5 1A                  398 	ld	a,(de)
   01A6 22                  399 	ld	(hl+),a
   01A7 13                  400 	inc	de
   01A8 1A                  401 	ld	a,(de)
   01A9 32                  402 	ld	(hl-),a
   01AA 7E                  403 	ld	a,(hl)
   01AB E6 7F               404 	and	a,#0x7F
   01AD 22                  405 	ld	(hl+),a
   01AE 36 00               406 	ld	(hl),#0x00
   01B0 2B                  407 	dec	hl
   01B1 7E                  408 	ld	a,(hl)
   01B2 F6 80               409 	or	a,#0x80
   01B4 77                  410 	ld	(hl),a
   01B5 F8 05               411 	lda	hl,5(sp)
   01B7 2B                  412 	dec	hl
   01B8 5E                  413 	ld	e,(hl)
   01B9 23                  414 	inc	hl
   01BA 56                  415 	ld	d,(hl)
   01BB F8 08               416 	lda	hl,8(sp)
   01BD 7E                  417 	ld	a,(hl)
   01BE 12                  418 	ld	(de),a
   01BF 13                  419 	inc	de
   01C0 23                  420 	inc	hl
   01C1 7E                  421 	ld	a,(hl)
   01C2 12                  422 	ld	(de),a
   01C3 13                  423 	inc	de
   01C4 23                  424 	inc	hl
   01C5 7E                  425 	ld	a,(hl)
   01C6 12                  426 	ld	(de),a
   01C7 13                  427 	inc	de
   01C8 23                  428 	inc	hl
   01C9 7E                  429 	ld	a,(hl)
   01CA 12                  430 	ld	(de),a
                            431 ;../_fsmul.c:249: fl2.l = MANT (fl2.l);
   01CB F8 13               432 	lda	hl,19(sp)
   01CD 7D                  433 	ld	a,l
   01CE 54                  434 	ld	d,h
   01CF F8 04               435 	lda	hl,4(sp)
   01D1 22                  436 	ld	(hl+),a
   01D2 72                  437 	ld	(hl),d
   01D3 F8 13               438 	lda	hl,19(sp)
   01D5 4D                  439 	ld	c,l
   01D6 44                  440 	ld	b,h
   01D7 59                  441 	ld	e,c
   01D8 50                  442 	ld	d,b
   01D9 1A                  443 	ld	a,(de)
   01DA F8 08               444 	lda	hl,8(sp)
   01DC 22                  445 	ld	(hl+),a
   01DD 13                  446 	inc	de
   01DE 1A                  447 	ld	a,(de)
   01DF 22                  448 	ld	(hl+),a
   01E0 13                  449 	inc	de
   01E1 1A                  450 	ld	a,(de)
   01E2 22                  451 	ld	(hl+),a
   01E3 13                  452 	inc	de
   01E4 1A                  453 	ld	a,(de)
   01E5 32                  454 	ld	(hl-),a
   01E6 7E                  455 	ld	a,(hl)
   01E7 E6 7F               456 	and	a,#0x7F
   01E9 22                  457 	ld	(hl+),a
   01EA 36 00               458 	ld	(hl),#0x00
   01EC 2B                  459 	dec	hl
   01ED 7E                  460 	ld	a,(hl)
   01EE F6 80               461 	or	a,#0x80
   01F0 77                  462 	ld	(hl),a
   01F1 F8 05               463 	lda	hl,5(sp)
   01F3 2B                  464 	dec	hl
   01F4 5E                  465 	ld	e,(hl)
   01F5 23                  466 	inc	hl
   01F6 56                  467 	ld	d,(hl)
   01F7 F8 08               468 	lda	hl,8(sp)
   01F9 7E                  469 	ld	a,(hl)
   01FA 12                  470 	ld	(de),a
   01FB 13                  471 	inc	de
   01FC 23                  472 	inc	hl
   01FD 7E                  473 	ld	a,(hl)
   01FE 12                  474 	ld	(de),a
   01FF 13                  475 	inc	de
   0200 23                  476 	inc	hl
   0201 7E                  477 	ld	a,(hl)
   0202 12                  478 	ld	(de),a
   0203 13                  479 	inc	de
   0204 23                  480 	inc	hl
   0205 7E                  481 	ld	a,(hl)
   0206 12                  482 	ld	(de),a
                            483 ;../_fsmul.c:252: result = (fl1.l >> 8) * (fl2.l >> 8);
   0207 F8 17               484 	lda	hl,23(sp)
   0209 4D                  485 	ld	c,l
   020A 44                  486 	ld	b,h
   020B 59                  487 	ld	e,c
   020C 50                  488 	ld	d,b
   020D 1A                  489 	ld	a,(de)
   020E F8 04               490 	lda	hl,4(sp)
   0210 22                  491 	ld	(hl+),a
   0211 13                  492 	inc	de
   0212 1A                  493 	ld	a,(de)
   0213 22                  494 	ld	(hl+),a
   0214 13                  495 	inc	de
   0215 1A                  496 	ld	a,(de)
   0216 22                  497 	ld	(hl+),a
   0217 13                  498 	inc	de
   0218 1A                  499 	ld	a,(de)
   0219 77                  500 	ld	(hl),a
   021A 3E 08               501 	ld	a,#0x08
   021C F5                  502 	push	af
   021D 33                  503 	inc	sp
   021E 2B                  504 	dec	hl
   021F 2A                  505 	ld	a,(hl+)
   0220 66                  506 	ld	h,(hl)
   0221 6F                  507 	ld	l,a
   0222 E5                  508 	push	hl
   0223 F8 07               509 	lda	hl,7(sp)
   0225 2A                  510 	ld	a,(hl+)
   0226 66                  511 	ld	h,(hl)
   0227 6F                  512 	ld	l,a
   0228 E5                  513 	push	hl
   0229 CDr00s00            514 	call	__rrulong_rrx_s
   022C E8 05               515 	lda	sp,5(sp)
   022E E5                  516 	push	hl
   022F F8 06               517 	lda	hl,6(sp)
   0231 73                  518 	ld	(hl),e
   0232 23                  519 	inc	hl
   0233 72                  520 	ld	(hl),d
   0234 D1                  521 	pop	de
   0235 23                  522 	inc	hl
   0236 73                  523 	ld	(hl),e
   0237 23                  524 	inc	hl
   0238 72                  525 	ld	(hl),d
   0239 F8 13               526 	lda	hl,19(sp)
   023B 4D                  527 	ld	c,l
   023C 44                  528 	ld	b,h
   023D 59                  529 	ld	e,c
   023E 50                  530 	ld	d,b
   023F 1A                  531 	ld	a,(de)
   0240 F8 08               532 	lda	hl,8(sp)
   0242 22                  533 	ld	(hl+),a
   0243 13                  534 	inc	de
   0244 1A                  535 	ld	a,(de)
   0245 22                  536 	ld	(hl+),a
   0246 13                  537 	inc	de
   0247 1A                  538 	ld	a,(de)
   0248 22                  539 	ld	(hl+),a
   0249 13                  540 	inc	de
   024A 1A                  541 	ld	a,(de)
   024B 77                  542 	ld	(hl),a
   024C 3E 08               543 	ld	a,#0x08
   024E F5                  544 	push	af
   024F 33                  545 	inc	sp
   0250 2B                  546 	dec	hl
   0251 2A                  547 	ld	a,(hl+)
   0252 66                  548 	ld	h,(hl)
   0253 6F                  549 	ld	l,a
   0254 E5                  550 	push	hl
   0255 F8 0B               551 	lda	hl,11(sp)
   0257 2A                  552 	ld	a,(hl+)
   0258 66                  553 	ld	h,(hl)
   0259 6F                  554 	ld	l,a
   025A E5                  555 	push	hl
   025B CDr00s00            556 	call	__rrulong_rrx_s
   025E E8 05               557 	lda	sp,5(sp)
   0260 E5                  558 	push	hl
   0261 F8 0A               559 	lda	hl,10(sp)
   0263 73                  560 	ld	(hl),e
   0264 23                  561 	inc	hl
   0265 72                  562 	ld	(hl),d
   0266 D1                  563 	pop	de
   0267 23                  564 	inc	hl
   0268 73                  565 	ld	(hl),e
   0269 23                  566 	inc	hl
   026A 72                  567 	ld	(hl),d
   026B F8 0A               568 	lda	hl,10(sp)
   026D 2A                  569 	ld	a,(hl+)
   026E 66                  570 	ld	h,(hl)
   026F 6F                  571 	ld	l,a
   0270 E5                  572 	push	hl
   0271 F8 0A               573 	lda	hl,10(sp)
   0273 2A                  574 	ld	a,(hl+)
   0274 66                  575 	ld	h,(hl)
   0275 6F                  576 	ld	l,a
   0276 E5                  577 	push	hl
   0277 F8 0A               578 	lda	hl,10(sp)
   0279 2A                  579 	ld	a,(hl+)
   027A 66                  580 	ld	h,(hl)
   027B 6F                  581 	ld	l,a
   027C E5                  582 	push	hl
   027D F8 0A               583 	lda	hl,10(sp)
   027F 2A                  584 	ld	a,(hl+)
   0280 66                  585 	ld	h,(hl)
   0281 6F                  586 	ld	l,a
   0282 E5                  587 	push	hl
   0283 CDr00s00            588 	call	__mullong_rrx_s
   0286 E8 08               589 	lda	sp,8(sp)
   0288 E5                  590 	push	hl
   0289 F8 06               591 	lda	hl,6(sp)
   028B 73                  592 	ld	(hl),e
   028C 23                  593 	inc	hl
   028D 72                  594 	ld	(hl),d
   028E D1                  595 	pop	de
   028F 23                  596 	inc	hl
   0290 73                  597 	ld	(hl),e
   0291 23                  598 	inc	hl
   0292 72                  599 	ld	(hl),d
   0293 F8 04               600 	lda	hl,4(sp)
   0295 54                  601 	ld	d,h
   0296 5D                  602 	ld	e,l
   0297 F8 0F               603 	lda	hl,15(sp)
   0299 1A                  604 	ld	a,(de)
   029A 22                  605 	ld	(hl+),a
   029B 13                  606 	inc	de
   029C 1A                  607 	ld	a,(de)
   029D 22                  608 	ld	(hl+),a
   029E 13                  609 	inc	de
   029F 1A                  610 	ld	a,(de)
   02A0 22                  611 	ld	(hl+),a
   02A1 13                  612 	inc	de
   02A2 1A                  613 	ld	a,(de)
   02A3 77                  614 	ld	(hl),a
                            615 ;../_fsmul.c:253: result += ((fl1.l & (unsigned long) 0xFF) * (fl2.l >> 8)) >> 8;
   02A4 F8 17               616 	lda	hl,23(sp)
   02A6 4D                  617 	ld	c,l
   02A7 44                  618 	ld	b,h
   02A8 59                  619 	ld	e,c
   02A9 50                  620 	ld	d,b
   02AA 1A                  621 	ld	a,(de)
   02AB F8 04               622 	lda	hl,4(sp)
   02AD 22                  623 	ld	(hl+),a
   02AE 13                  624 	inc	de
   02AF 1A                  625 	ld	a,(de)
   02B0 22                  626 	ld	(hl+),a
   02B1 13                  627 	inc	de
   02B2 1A                  628 	ld	a,(de)
   02B3 22                  629 	ld	(hl+),a
   02B4 13                  630 	inc	de
   02B5 1A                  631 	ld	a,(de)
   02B6 32                  632 	ld	(hl-),a
   02B7 2B                  633 	dec	hl
   02B8 36 00               634 	ld	(hl),#0x00
   02BA 23                  635 	inc	hl
   02BB 36 00               636 	ld	(hl),#0x00
   02BD 23                  637 	inc	hl
   02BE 36 00               638 	ld	(hl),#0x00
   02C0 F8 13               639 	lda	hl,19(sp)
   02C2 4D                  640 	ld	c,l
   02C3 44                  641 	ld	b,h
   02C4 59                  642 	ld	e,c
   02C5 50                  643 	ld	d,b
   02C6 1A                  644 	ld	a,(de)
   02C7 F8 08               645 	lda	hl,8(sp)
   02C9 22                  646 	ld	(hl+),a
   02CA 13                  647 	inc	de
   02CB 1A                  648 	ld	a,(de)
   02CC 22                  649 	ld	(hl+),a
   02CD 13                  650 	inc	de
   02CE 1A                  651 	ld	a,(de)
   02CF 22                  652 	ld	(hl+),a
   02D0 13                  653 	inc	de
   02D1 1A                  654 	ld	a,(de)
   02D2 77                  655 	ld	(hl),a
   02D3 3E 08               656 	ld	a,#0x08
   02D5 F5                  657 	push	af
   02D6 33                  658 	inc	sp
   02D7 2B                  659 	dec	hl
   02D8 2A                  660 	ld	a,(hl+)
   02D9 66                  661 	ld	h,(hl)
   02DA 6F                  662 	ld	l,a
   02DB E5                  663 	push	hl
   02DC F8 0B               664 	lda	hl,11(sp)
   02DE 2A                  665 	ld	a,(hl+)
   02DF 66                  666 	ld	h,(hl)
   02E0 6F                  667 	ld	l,a
   02E1 E5                  668 	push	hl
   02E2 CDr00s00            669 	call	__rrulong_rrx_s
   02E5 E8 05               670 	lda	sp,5(sp)
   02E7 E5                  671 	push	hl
   02E8 F8 0A               672 	lda	hl,10(sp)
   02EA 73                  673 	ld	(hl),e
   02EB 23                  674 	inc	hl
   02EC 72                  675 	ld	(hl),d
   02ED D1                  676 	pop	de
   02EE 23                  677 	inc	hl
   02EF 73                  678 	ld	(hl),e
   02F0 23                  679 	inc	hl
   02F1 72                  680 	ld	(hl),d
   02F2 F8 0A               681 	lda	hl,10(sp)
   02F4 2A                  682 	ld	a,(hl+)
   02F5 66                  683 	ld	h,(hl)
   02F6 6F                  684 	ld	l,a
   02F7 E5                  685 	push	hl
   02F8 F8 0A               686 	lda	hl,10(sp)
   02FA 2A                  687 	ld	a,(hl+)
   02FB 66                  688 	ld	h,(hl)
   02FC 6F                  689 	ld	l,a
   02FD E5                  690 	push	hl
   02FE F8 0A               691 	lda	hl,10(sp)
   0300 2A                  692 	ld	a,(hl+)
   0301 66                  693 	ld	h,(hl)
   0302 6F                  694 	ld	l,a
   0303 E5                  695 	push	hl
   0304 F8 0A               696 	lda	hl,10(sp)
   0306 2A                  697 	ld	a,(hl+)
   0307 66                  698 	ld	h,(hl)
   0308 6F                  699 	ld	l,a
   0309 E5                  700 	push	hl
   030A CDr00s00            701 	call	__mullong_rrx_s
   030D E8 08               702 	lda	sp,8(sp)
   030F E5                  703 	push	hl
   0310 F8 06               704 	lda	hl,6(sp)
   0312 73                  705 	ld	(hl),e
   0313 23                  706 	inc	hl
   0314 72                  707 	ld	(hl),d
   0315 D1                  708 	pop	de
   0316 23                  709 	inc	hl
   0317 73                  710 	ld	(hl),e
   0318 23                  711 	inc	hl
   0319 72                  712 	ld	(hl),d
   031A 3E 08               713 	ld	a,#0x08
   031C F5                  714 	push	af
   031D 33                  715 	inc	sp
   031E F8 07               716 	lda	hl,7(sp)
   0320 2A                  717 	ld	a,(hl+)
   0321 66                  718 	ld	h,(hl)
   0322 6F                  719 	ld	l,a
   0323 E5                  720 	push	hl
   0324 F8 07               721 	lda	hl,7(sp)
   0326 2A                  722 	ld	a,(hl+)
   0327 66                  723 	ld	h,(hl)
   0328 6F                  724 	ld	l,a
   0329 E5                  725 	push	hl
   032A CDr00s00            726 	call	__rrulong_rrx_s
   032D E8 05               727 	lda	sp,5(sp)
   032F E5                  728 	push	hl
   0330 F8 06               729 	lda	hl,6(sp)
   0332 73                  730 	ld	(hl),e
   0333 23                  731 	inc	hl
   0334 72                  732 	ld	(hl),d
   0335 D1                  733 	pop	de
   0336 23                  734 	inc	hl
   0337 73                  735 	ld	(hl),e
   0338 23                  736 	inc	hl
   0339 72                  737 	ld	(hl),d
   033A F8 10               738 	lda	hl,16(sp)
   033C 2B                  739 	dec	hl
   033D 5E                  740 	ld	e,(hl)
   033E 23                  741 	inc	hl
   033F 56                  742 	ld	d,(hl)
   0340 7B                  743 	ld	a,e
   0341 F8 04               744 	lda	hl,4(sp)
   0343 86                  745 	add	a,(hl)
   0344 5F                  746 	ld	e,a
   0345 7A                  747 	ld	a,d
   0346 23                  748 	inc	hl
   0347 8E                  749 	adc	a,(hl)
   0348 F5                  750 	push	af
   0349 F8 12               751 	lda	hl,18(sp)
   034B 32                  752 	ld	(hl-),a
   034C 73                  753 	ld	(hl),e
   034D F8 14               754 	lda	hl,20(sp)
   034F 2B                  755 	dec	hl
   0350 5E                  756 	ld	e,(hl)
   0351 23                  757 	inc	hl
   0352 56                  758 	ld	d,(hl)
   0353 F8 08               759 	lda	hl,8(sp)
   0355 F1                  760 	pop	af
   0356 7B                  761 	ld	a,e
   0357 8E                  762 	adc	a,(hl)
   0358 5F                  763 	ld	e,a
   0359 7A                  764 	ld	a,d
   035A 23                  765 	inc	hl
   035B 8E                  766 	adc	a,(hl)
   035C F8 12               767 	lda	hl,18(sp)
   035E 32                  768 	ld	(hl-),a
   035F 73                  769 	ld	(hl),e
                            770 ;../_fsmul.c:254: result += ((fl2.l & (unsigned long) 0xFF) * (fl1.l >> 8)) >> 8;
   0360 F8 13               771 	lda	hl,19(sp)
   0362 4D                  772 	ld	c,l
   0363 44                  773 	ld	b,h
   0364 59                  774 	ld	e,c
   0365 50                  775 	ld	d,b
   0366 1A                  776 	ld	a,(de)
   0367 F8 04               777 	lda	hl,4(sp)
   0369 22                  778 	ld	(hl+),a
   036A 13                  779 	inc	de
   036B 1A                  780 	ld	a,(de)
   036C 22                  781 	ld	(hl+),a
   036D 13                  782 	inc	de
   036E 1A                  783 	ld	a,(de)
   036F 22                  784 	ld	(hl+),a
   0370 13                  785 	inc	de
   0371 1A                  786 	ld	a,(de)
   0372 32                  787 	ld	(hl-),a
   0373 2B                  788 	dec	hl
   0374 36 00               789 	ld	(hl),#0x00
   0376 23                  790 	inc	hl
   0377 36 00               791 	ld	(hl),#0x00
   0379 23                  792 	inc	hl
   037A 36 00               793 	ld	(hl),#0x00
   037C F8 17               794 	lda	hl,23(sp)
   037E 4D                  795 	ld	c,l
   037F 44                  796 	ld	b,h
   0380 59                  797 	ld	e,c
   0381 50                  798 	ld	d,b
   0382 1A                  799 	ld	a,(de)
   0383 F8 08               800 	lda	hl,8(sp)
   0385 22                  801 	ld	(hl+),a
   0386 13                  802 	inc	de
   0387 1A                  803 	ld	a,(de)
   0388 22                  804 	ld	(hl+),a
   0389 13                  805 	inc	de
   038A 1A                  806 	ld	a,(de)
   038B 22                  807 	ld	(hl+),a
   038C 13                  808 	inc	de
   038D 1A                  809 	ld	a,(de)
   038E 77                  810 	ld	(hl),a
   038F 3E 08               811 	ld	a,#0x08
   0391 F5                  812 	push	af
   0392 33                  813 	inc	sp
   0393 2B                  814 	dec	hl
   0394 2A                  815 	ld	a,(hl+)
   0395 66                  816 	ld	h,(hl)
   0396 6F                  817 	ld	l,a
   0397 E5                  818 	push	hl
   0398 F8 0B               819 	lda	hl,11(sp)
   039A 2A                  820 	ld	a,(hl+)
   039B 66                  821 	ld	h,(hl)
   039C 6F                  822 	ld	l,a
   039D E5                  823 	push	hl
   039E CDr00s00            824 	call	__rrulong_rrx_s
   03A1 E8 05               825 	lda	sp,5(sp)
   03A3 E5                  826 	push	hl
   03A4 F8 0A               827 	lda	hl,10(sp)
   03A6 73                  828 	ld	(hl),e
   03A7 23                  829 	inc	hl
   03A8 72                  830 	ld	(hl),d
   03A9 D1                  831 	pop	de
   03AA 23                  832 	inc	hl
   03AB 73                  833 	ld	(hl),e
   03AC 23                  834 	inc	hl
   03AD 72                  835 	ld	(hl),d
   03AE F8 0A               836 	lda	hl,10(sp)
   03B0 2A                  837 	ld	a,(hl+)
   03B1 66                  838 	ld	h,(hl)
   03B2 6F                  839 	ld	l,a
   03B3 E5                  840 	push	hl
   03B4 F8 0A               841 	lda	hl,10(sp)
   03B6 2A                  842 	ld	a,(hl+)
   03B7 66                  843 	ld	h,(hl)
   03B8 6F                  844 	ld	l,a
   03B9 E5                  845 	push	hl
   03BA F8 0A               846 	lda	hl,10(sp)
   03BC 2A                  847 	ld	a,(hl+)
   03BD 66                  848 	ld	h,(hl)
   03BE 6F                  849 	ld	l,a
   03BF E5                  850 	push	hl
   03C0 F8 0A               851 	lda	hl,10(sp)
   03C2 2A                  852 	ld	a,(hl+)
   03C3 66                  853 	ld	h,(hl)
   03C4 6F                  854 	ld	l,a
   03C5 E5                  855 	push	hl
   03C6 CDr00s00            856 	call	__mullong_rrx_s
   03C9 E8 08               857 	lda	sp,8(sp)
   03CB E5                  858 	push	hl
   03CC F8 06               859 	lda	hl,6(sp)
   03CE 73                  860 	ld	(hl),e
   03CF 23                  861 	inc	hl
   03D0 72                  862 	ld	(hl),d
   03D1 D1                  863 	pop	de
   03D2 23                  864 	inc	hl
   03D3 73                  865 	ld	(hl),e
   03D4 23                  866 	inc	hl
   03D5 72                  867 	ld	(hl),d
   03D6 3E 08               868 	ld	a,#0x08
   03D8 F5                  869 	push	af
   03D9 33                  870 	inc	sp
   03DA F8 07               871 	lda	hl,7(sp)
   03DC 2A                  872 	ld	a,(hl+)
   03DD 66                  873 	ld	h,(hl)
   03DE 6F                  874 	ld	l,a
   03DF E5                  875 	push	hl
   03E0 F8 07               876 	lda	hl,7(sp)
   03E2 2A                  877 	ld	a,(hl+)
   03E3 66                  878 	ld	h,(hl)
   03E4 6F                  879 	ld	l,a
   03E5 E5                  880 	push	hl
   03E6 CDr00s00            881 	call	__rrulong_rrx_s
   03E9 E8 05               882 	lda	sp,5(sp)
   03EB E5                  883 	push	hl
   03EC F8 06               884 	lda	hl,6(sp)
   03EE 73                  885 	ld	(hl),e
   03EF 23                  886 	inc	hl
   03F0 72                  887 	ld	(hl),d
   03F1 D1                  888 	pop	de
   03F2 23                  889 	inc	hl
   03F3 73                  890 	ld	(hl),e
   03F4 23                  891 	inc	hl
   03F5 72                  892 	ld	(hl),d
   03F6 F8 10               893 	lda	hl,16(sp)
   03F8 2B                  894 	dec	hl
   03F9 5E                  895 	ld	e,(hl)
   03FA 23                  896 	inc	hl
   03FB 56                  897 	ld	d,(hl)
   03FC 7B                  898 	ld	a,e
   03FD F8 04               899 	lda	hl,4(sp)
   03FF 86                  900 	add	a,(hl)
   0400 5F                  901 	ld	e,a
   0401 7A                  902 	ld	a,d
   0402 23                  903 	inc	hl
   0403 8E                  904 	adc	a,(hl)
   0404 F5                  905 	push	af
   0405 F8 12               906 	lda	hl,18(sp)
   0407 32                  907 	ld	(hl-),a
   0408 73                  908 	ld	(hl),e
   0409 F8 14               909 	lda	hl,20(sp)
   040B 2B                  910 	dec	hl
   040C 5E                  911 	ld	e,(hl)
   040D 23                  912 	inc	hl
   040E 56                  913 	ld	d,(hl)
   040F F8 08               914 	lda	hl,8(sp)
   0411 F1                  915 	pop	af
   0412 7B                  916 	ld	a,e
   0413 8E                  917 	adc	a,(hl)
   0414 5F                  918 	ld	e,a
   0415 7A                  919 	ld	a,d
   0416 23                  920 	inc	hl
   0417 8E                  921 	adc	a,(hl)
   0418 F8 12               922 	lda	hl,18(sp)
   041A 32                  923 	ld	(hl-),a
   041B 73                  924 	ld	(hl),e
                            925 ;../_fsmul.c:257: result += 0x40;
   041C 2B                  926 	dec	hl
   041D 2B                  927 	dec	hl
   041E 5E                  928 	ld	e,(hl)
   041F 23                  929 	inc	hl
   0420 56                  930 	ld	d,(hl)
   0421 7B                  931 	ld	a,e
   0422 C6 40               932 	add	a,#0x40
   0424 5F                  933 	ld	e,a
   0425 7A                  934 	ld	a,d
   0426 CE 00               935 	adc	a,#0x00
   0428 F5                  936 	push	af
   0429 32                  937 	ld	(hl-),a
   042A 73                  938 	ld	(hl),e
   042B F8 14               939 	lda	hl,20(sp)
   042D 2B                  940 	dec	hl
   042E 5E                  941 	ld	e,(hl)
   042F 23                  942 	inc	hl
   0430 56                  943 	ld	d,(hl)
   0431 F1                  944 	pop	af
   0432 7B                  945 	ld	a,e
   0433 CE 00               946 	adc	a,#0x00
   0435 5F                  947 	ld	e,a
   0436 7A                  948 	ld	a,d
   0437 CE 00               949 	adc	a,#0x00
   0439 32                  950 	ld	(hl-),a
   043A 73                  951 	ld	(hl),e
                            952 ;../_fsmul.c:259: if (result & SIGNBIT)
   043B 23                  953 	inc	hl
   043C 7E                  954 	ld	a,(hl)
   043D E6 80               955 	and	a,#0x80
   043F 20 03               956 	jr	NZ,00125$
   0441 C3r96s04            957 	jp	00105$
   0444                     958 00125$:
                            959 ;../_fsmul.c:262: result += 0x40;
   0444 2B                  960 	dec	hl
   0445 2B                  961 	dec	hl
   0446 2B                  962 	dec	hl
   0447 5E                  963 	ld	e,(hl)
   0448 23                  964 	inc	hl
   0449 56                  965 	ld	d,(hl)
   044A 7B                  966 	ld	a,e
   044B C6 40               967 	add	a,#0x40
   044D 5F                  968 	ld	e,a
   044E 7A                  969 	ld	a,d
   044F CE 00               970 	adc	a,#0x00
   0451 F5                  971 	push	af
   0452 32                  972 	ld	(hl-),a
   0453 73                  973 	ld	(hl),e
   0454 F8 14               974 	lda	hl,20(sp)
   0456 2B                  975 	dec	hl
   0457 5E                  976 	ld	e,(hl)
   0458 23                  977 	inc	hl
   0459 56                  978 	ld	d,(hl)
   045A F1                  979 	pop	af
   045B 7B                  980 	ld	a,e
   045C CE 00               981 	adc	a,#0x00
   045E 5F                  982 	ld	e,a
   045F 7A                  983 	ld	a,d
   0460 CE 00               984 	adc	a,#0x00
   0462 32                  985 	ld	(hl-),a
   0463 73                  986 	ld	(hl),e
                            987 ;../_fsmul.c:263: result >>= 8;
   0464 3E 08               988 	ld	a,#0x08
   0466 F5                  989 	push	af
   0467 33                  990 	inc	sp
   0468 2A                  991 	ld	a,(hl+)
   0469 66                  992 	ld	h,(hl)
   046A 6F                  993 	ld	l,a
   046B E5                  994 	push	hl
   046C F8 12               995 	lda	hl,18(sp)
   046E 2A                  996 	ld	a,(hl+)
   046F 66                  997 	ld	h,(hl)
   0470 6F                  998 	ld	l,a
   0471 E5                  999 	push	hl
   0472 CDr00s00           1000 	call	__rrulong_rrx_s
   0475 E8 05              1001 	lda	sp,5(sp)
   0477 E5                 1002 	push	hl
   0478 F8 06              1003 	lda	hl,6(sp)
   047A 73                 1004 	ld	(hl),e
   047B 23                 1005 	inc	hl
   047C 72                 1006 	ld	(hl),d
   047D D1                 1007 	pop	de
   047E 23                 1008 	inc	hl
   047F 73                 1009 	ld	(hl),e
   0480 23                 1010 	inc	hl
   0481 72                 1011 	ld	(hl),d
   0482 F8 04              1012 	lda	hl,4(sp)
   0484 54                 1013 	ld	d,h
   0485 5D                 1014 	ld	e,l
   0486 F8 0F              1015 	lda	hl,15(sp)
   0488 1A                 1016 	ld	a,(de)
   0489 22                 1017 	ld	(hl+),a
   048A 13                 1018 	inc	de
   048B 1A                 1019 	ld	a,(de)
   048C 22                 1020 	ld	(hl+),a
   048D 13                 1021 	inc	de
   048E 1A                 1022 	ld	a,(de)
   048F 22                 1023 	ld	(hl+),a
   0490 13                 1024 	inc	de
   0491 1A                 1025 	ld	a,(de)
   0492 77                 1026 	ld	(hl),a
   0493 C3rD2s04           1027 	jp	00106$
   0496                    1028 00105$:
                           1029 ;../_fsmul.c:267: result >>= 7;
   0496 3E 07              1030 	ld	a,#0x07
   0498 F5                 1031 	push	af
   0499 33                 1032 	inc	sp
   049A F8 12              1033 	lda	hl,18(sp)
   049C 2A                 1034 	ld	a,(hl+)
   049D 66                 1035 	ld	h,(hl)
   049E 6F                 1036 	ld	l,a
   049F E5                 1037 	push	hl
   04A0 F8 12              1038 	lda	hl,18(sp)
   04A2 2A                 1039 	ld	a,(hl+)
   04A3 66                 1040 	ld	h,(hl)
   04A4 6F                 1041 	ld	l,a
   04A5 E5                 1042 	push	hl
   04A6 CDr00s00           1043 	call	__rrulong_rrx_s
   04A9 E8 05              1044 	lda	sp,5(sp)
   04AB E5                 1045 	push	hl
   04AC F8 06              1046 	lda	hl,6(sp)
   04AE 73                 1047 	ld	(hl),e
   04AF 23                 1048 	inc	hl
   04B0 72                 1049 	ld	(hl),d
   04B1 D1                 1050 	pop	de
   04B2 23                 1051 	inc	hl
   04B3 73                 1052 	ld	(hl),e
   04B4 23                 1053 	inc	hl
   04B5 72                 1054 	ld	(hl),d
   04B6 F8 04              1055 	lda	hl,4(sp)
   04B8 54                 1056 	ld	d,h
   04B9 5D                 1057 	ld	e,l
   04BA F8 0F              1058 	lda	hl,15(sp)
   04BC 1A                 1059 	ld	a,(de)
   04BD 22                 1060 	ld	(hl+),a
   04BE 13                 1061 	inc	de
   04BF 1A                 1062 	ld	a,(de)
   04C0 22                 1063 	ld	(hl+),a
   04C1 13                 1064 	inc	de
   04C2 1A                 1065 	ld	a,(de)
   04C3 22                 1066 	ld	(hl+),a
   04C4 13                 1067 	inc	de
   04C5 1A                 1068 	ld	a,(de)
   04C6 77                 1069 	ld	(hl),a
                           1070 ;../_fsmul.c:268: exp--;
   04C7 F8 0E              1071 	lda	hl,14(sp)
   04C9 2B                 1072 	dec	hl
   04CA 5E                 1073 	ld	e,(hl)
   04CB 23                 1074 	inc	hl
   04CC 56                 1075 	ld	d,(hl)
   04CD 1B                 1076 	dec	de
   04CE 2B                 1077 	dec	hl
   04CF 73                 1078 	ld	(hl),e
   04D0 23                 1079 	inc	hl
   04D1 72                 1080 	ld	(hl),d
   04D2                    1081 00106$:
                           1082 ;../_fsmul.c:271: result &= ~HIDDEN;
   04D2 F8 11              1083 	lda	hl,17(sp)
   04D4 7E                 1084 	ld	a,(hl)
   04D5 E6 7F              1085 	and	a,#0x7F
   04D7 77                 1086 	ld	(hl),a
                           1087 ;../_fsmul.c:274: if (exp >= 0x100)
   04D8 F8 0D              1088 	lda	hl,13(sp)
   04DA 7E                 1089 	ld	a,(hl)
   04DB D6 00              1090 	sub	a,#0x00
   04DD 23                 1091 	inc	hl
   04DE 7E                 1092 	ld	a,(hl)
   04DF DE 01              1093 	sbc	a,#0x01
   04E1 07                 1094 	rlca
   04E2 DAr26s05           1095 	jp	C,00111$
                           1096 ;../_fsmul.c:275: fl1.l = (sign ? SIGNBIT : 0) | __INFINITY;
   04E5 F8 17              1097 	lda	hl,23(sp)
   04E7 4D                 1098 	ld	c,l
   04E8 44                 1099 	ld	b,h
   04E9 AF                 1100 	xor	a,a
   04EA F8 0C              1101 	lda	hl,12(sp)
   04EC B6                 1102 	or	a,(hl)
   04ED CAr00s05           1103 	jp	Z,00115$
   04F0 F8 04              1104 	lda	hl,4(sp)
   04F2 36 00              1105 	ld	(hl),#0x00
   04F4 23                 1106 	inc	hl
   04F5 36 00              1107 	ld	(hl),#0x00
   04F7 23                 1108 	inc	hl
   04F8 36 00              1109 	ld	(hl),#0x00
   04FA 23                 1110 	inc	hl
   04FB 36 80              1111 	ld	(hl),#0x80
   04FD C3r07s05           1112 	jp	00116$
   0500                    1113 00115$:
   0500 AF                 1114 	xor	a,a
   0501 F8 04              1115 	lda	hl,4(sp)
   0503 22                 1116 	ld	(hl+),a
   0504 22                 1117 	ld	(hl+),a
   0505 22                 1118 	ld	(hl+),a
   0506 77                 1119 	ld	(hl),a
   0507                    1120 00116$:
   0507 F8 06              1121 	lda	hl,6(sp)
   0509 7E                 1122 	ld	a,(hl)
   050A F6 80              1123 	or	a,#0x80
   050C 22                 1124 	ld	(hl+),a
   050D 7E                 1125 	ld	a,(hl)
   050E F6 7F              1126 	or	a,#0x7F
   0510 77                 1127 	ld	(hl),a
   0511 59                 1128 	ld	e,c
   0512 50                 1129 	ld	d,b
   0513 F8 04              1130 	lda	hl,4(sp)
   0515 7E                 1131 	ld	a,(hl)
   0516 12                 1132 	ld	(de),a
   0517 13                 1133 	inc	de
   0518 23                 1134 	inc	hl
   0519 7E                 1135 	ld	a,(hl)
   051A 12                 1136 	ld	(de),a
   051B 13                 1137 	inc	de
   051C 23                 1138 	inc	hl
   051D 7E                 1139 	ld	a,(hl)
   051E 12                 1140 	ld	(de),a
   051F 13                 1141 	inc	de
   0520 23                 1142 	inc	hl
   0521 7E                 1143 	ld	a,(hl)
   0522 12                 1144 	ld	(de),a
   0523 C3rECs05           1145 	jp	00112$
   0526                    1146 00111$:
                           1147 ;../_fsmul.c:276: else if (exp < 0)
   0526 F8 0E              1148 	lda	hl,14(sp)
   0528 7E                 1149 	ld	a,(hl)
   0529 CB 7F              1150 	bit	7,a
   052B CAr46s05           1151 	jp	Z,00108$
                           1152 ;../_fsmul.c:277: fl1.l = 0;
   052E F8 17              1153 	lda	hl,23(sp)
   0530 4D                 1154 	ld	c,l
   0531 44                 1155 	ld	b,h
   0532 59                 1156 	ld	e,c
   0533 50                 1157 	ld	d,b
   0534 3E 00              1158 	ld	a,#0x00
   0536 12                 1159 	ld	(de),a
   0537 13                 1160 	inc	de
   0538 3E 00              1161 	ld	a,#0x00
   053A 12                 1162 	ld	(de),a
   053B 13                 1163 	inc	de
   053C 3E 00              1164 	ld	a,#0x00
   053E 12                 1165 	ld	(de),a
   053F 13                 1166 	inc	de
   0540 3E 00              1167 	ld	a,#0x00
   0542 12                 1168 	ld	(de),a
   0543 C3rECs05           1169 	jp	00112$
   0546                    1170 00108$:
                           1171 ;../_fsmul.c:279: fl1.l = PACK (sign ? SIGNBIT : 0 , exp, result);
   0546 F8 17              1172 	lda	hl,23(sp)
   0548 4D                 1173 	ld	c,l
   0549 44                 1174 	ld	b,h
   054A AF                 1175 	xor	a,a
   054B F8 0C              1176 	lda	hl,12(sp)
   054D B6                 1177 	or	a,(hl)
   054E CAr61s05           1178 	jp	Z,00117$
   0551 F8 04              1179 	lda	hl,4(sp)
   0553 36 00              1180 	ld	(hl),#0x00
   0555 23                 1181 	inc	hl
   0556 36 00              1182 	ld	(hl),#0x00
   0558 23                 1183 	inc	hl
   0559 36 00              1184 	ld	(hl),#0x00
   055B 23                 1185 	inc	hl
   055C 36 80              1186 	ld	(hl),#0x80
   055E C3r68s05           1187 	jp	00118$
   0561                    1188 00117$:
   0561 AF                 1189 	xor	a,a
   0562 F8 04              1190 	lda	hl,4(sp)
   0564 22                 1191 	ld	(hl+),a
   0565 22                 1192 	ld	(hl+),a
   0566 22                 1193 	ld	(hl+),a
   0567 77                 1194 	ld	(hl),a
   0568                    1195 00118$:
   0568 F8 0D              1196 	lda	hl,13(sp)
   056A 7E                 1197 	ld	a,(hl)
   056B F8 00              1198 	lda	hl,0(sp)
   056D 77                 1199 	ld	(hl),a
   056E F8 0E              1200 	lda	hl,14(sp)
   0570 7E                 1201 	ld	a,(hl)
   0571 F8 01              1202 	lda	hl,1(sp)
   0573 77                 1203 	ld	(hl),a
   0574 F8 0E              1204 	lda	hl,14(sp)
   0576 7E                 1205 	ld	a,(hl)
   0577 17                 1206 	rla	
   0578 9F                 1207 	sbc	a,a
   0579 F8 02              1208 	lda	hl,2(sp)
   057B 22                 1209 	ld	(hl+),a
   057C 77                 1210 	ld	(hl),a
   057D C5                 1211 	push	bc
   057E 3E 17              1212 	ld	a,#0x17
   0580 F5                 1213 	push	af
   0581 33                 1214 	inc	sp
   0582 2B                 1215 	dec	hl
   0583 2A                 1216 	ld	a,(hl+)
   0584 66                 1217 	ld	h,(hl)
   0585 6F                 1218 	ld	l,a
   0586 E5                 1219 	push	hl
   0587 F8 05              1220 	lda	hl,5(sp)
   0589 2A                 1221 	ld	a,(hl+)
   058A 66                 1222 	ld	h,(hl)
   058B 6F                 1223 	ld	l,a
   058C E5                 1224 	push	hl
   058D CDr00s00           1225 	call	__rlulong_rrx_s
   0590 E8 05              1226 	lda	sp,5(sp)
   0592 E5                 1227 	push	hl
   0593 F8 04              1228 	lda	hl,4(sp)
   0595 73                 1229 	ld	(hl),e
   0596 23                 1230 	inc	hl
   0597 72                 1231 	ld	(hl),d
   0598 D1                 1232 	pop	de
   0599 23                 1233 	inc	hl
   059A 73                 1234 	ld	(hl),e
   059B 23                 1235 	inc	hl
   059C 72                 1236 	ld	(hl),d
   059D C1                 1237 	pop	bc
   059E F8 00              1238 	lda	hl,0(sp)
   05A0 7E                 1239 	ld	a,(hl)
   05A1 F8 04              1240 	lda	hl,4(sp)
   05A3 B6                 1241 	or	a,(hl)
   05A4 F8 00              1242 	lda	hl,0(sp)
   05A6 22                 1243 	ld	(hl+),a
   05A7 7E                 1244 	ld	a,(hl)
   05A8 F8 05              1245 	lda	hl,5(sp)
   05AA B6                 1246 	or	a,(hl)
   05AB F8 01              1247 	lda	hl,1(sp)
   05AD 22                 1248 	ld	(hl+),a
   05AE 7E                 1249 	ld	a,(hl)
   05AF F8 06              1250 	lda	hl,6(sp)
   05B1 B6                 1251 	or	a,(hl)
   05B2 F8 02              1252 	lda	hl,2(sp)
   05B4 22                 1253 	ld	(hl+),a
   05B5 7E                 1254 	ld	a,(hl)
   05B6 F8 07              1255 	lda	hl,7(sp)
   05B8 B6                 1256 	or	a,(hl)
   05B9 F8 03              1257 	lda	hl,3(sp)
   05BB 77                 1258 	ld	(hl),a
   05BC F8 00              1259 	lda	hl,0(sp)
   05BE 7E                 1260 	ld	a,(hl)
   05BF F8 0F              1261 	lda	hl,15(sp)
   05C1 B6                 1262 	or	a,(hl)
   05C2 F8 00              1263 	lda	hl,0(sp)
   05C4 22                 1264 	ld	(hl+),a
   05C5 7E                 1265 	ld	a,(hl)
   05C6 F8 10              1266 	lda	hl,16(sp)
   05C8 B6                 1267 	or	a,(hl)
   05C9 F8 01              1268 	lda	hl,1(sp)
   05CB 22                 1269 	ld	(hl+),a
   05CC 7E                 1270 	ld	a,(hl)
   05CD F8 11              1271 	lda	hl,17(sp)
   05CF B6                 1272 	or	a,(hl)
   05D0 F8 02              1273 	lda	hl,2(sp)
   05D2 22                 1274 	ld	(hl+),a
   05D3 7E                 1275 	ld	a,(hl)
   05D4 F8 12              1276 	lda	hl,18(sp)
   05D6 B6                 1277 	or	a,(hl)
   05D7 F8 03              1278 	lda	hl,3(sp)
   05D9 77                 1279 	ld	(hl),a
   05DA 59                 1280 	ld	e,c
   05DB 50                 1281 	ld	d,b
   05DC F8 00              1282 	lda	hl,0(sp)
   05DE 7E                 1283 	ld	a,(hl)
   05DF 12                 1284 	ld	(de),a
   05E0 13                 1285 	inc	de
   05E1 23                 1286 	inc	hl
   05E2 7E                 1287 	ld	a,(hl)
   05E3 12                 1288 	ld	(de),a
   05E4 13                 1289 	inc	de
   05E5 23                 1290 	inc	hl
   05E6 7E                 1291 	ld	a,(hl)
   05E7 12                 1292 	ld	(de),a
   05E8 13                 1293 	inc	de
   05E9 23                 1294 	inc	hl
   05EA 7E                 1295 	ld	a,(hl)
   05EB 12                 1296 	ld	(de),a
   05EC                    1297 00112$:
                           1298 ;../_fsmul.c:280: return (fl1.f);
   05EC F8 17              1299 	lda	hl,23(sp)
   05EE 4D                 1300 	ld	c,l
   05EF 44                 1301 	ld	b,h
   05F0 59                 1302 	ld	e,c
   05F1 50                 1303 	ld	d,b
   05F2 1A                 1304 	ld	a,(de)
   05F3 F8 00              1305 	lda	hl,0(sp)
   05F5 22                 1306 	ld	(hl+),a
   05F6 13                 1307 	inc	de
   05F7 1A                 1308 	ld	a,(de)
   05F8 22                 1309 	ld	(hl+),a
   05F9 13                 1310 	inc	de
   05FA 1A                 1311 	ld	a,(de)
   05FB 22                 1312 	ld	(hl+),a
   05FC 13                 1313 	inc	de
   05FD 1A                 1314 	ld	a,(de)
   05FE 32                 1315 	ld	(hl-),a
   05FF 2B                 1316 	dec	hl
   0600 2B                 1317 	dec	hl
   0601 5E                 1318 	ld	e,(hl)
   0602 23                 1319 	inc	hl
   0603 56                 1320 	ld	d,(hl)
   0604 23                 1321 	inc	hl
   0605 2A                 1322 	ld	a,(hl+)
   0606 66                 1323 	ld	h,(hl)
   0607 6F                 1324 	ld	l,a
   0608                    1325 00113$:
   0608 E8 1B              1326 	lda	sp,27(sp)
   060A C9                 1327 	ret
   060B                    1328 ___fsmul_end::
                           1329 	.area _CODE
                           1330 	.area _CABS
