;--------------------------------------------------------
; File Created by SDCC : free open source ANSI-C Compiler
; Version 2.9.4 #5595 (Oct 23 2013) (Mac OS X ppc)
; This file was generated Wed Oct 23 12:26:12 2013
;--------------------------------------------------------
	.module _mullong
	.optsdcc -mgbz80
	
;--------------------------------------------------------
; Public variables in this module
;--------------------------------------------------------
	.globl __mullong
;--------------------------------------------------------
;  ram data
;--------------------------------------------------------
	.area _DATA
;--------------------------------------------------------
; overlayable items in  ram 
;--------------------------------------------------------
	.area _OVERLAY
;--------------------------------------------------------
; external initialized ram data
;--------------------------------------------------------
;--------------------------------------------------------
; global & static initialisations
;--------------------------------------------------------
	.area _HOME
	.area _GSINIT
	.area _GSFINAL
	.area _GSINIT
;--------------------------------------------------------
; Home
;--------------------------------------------------------
	.area _HOME
	.area _HOME
;--------------------------------------------------------
; code
;--------------------------------------------------------
	.area _CODE
;../_mullong.c:703: _mullong (long a, long b)
;	---------------------------------
; Function _mullong
; ---------------------------------
__mullong_start::
__mullong:
	lda	sp,-25(sp)
;../_mullong.c:707: t.i.hi = bcast(a)->b.b0 * bcast(b)->b.b2;           // A
	lda	hl,21(sp)
	ld	a,l
	ld	d,h
	lda	hl,19(sp)
	ld	(hl+),a
	ld	(hl),d
	dec	hl
	ld	e,(hl)
	inc	hl
	ld	d,(hl)
	ld	hl,#0x0002
	add	hl,de
	ld	a,l
	ld	d,h
	lda	hl,17(sp)
	ld	(hl+),a
	ld	(hl),d
	lda	hl,27(sp)
	ld	a,l
	ld	d,h
	lda	hl,15(sp)
	ld	(hl+),a
	ld	(hl),d
	ld	e,a
	ld	a,(de)
	dec	hl
	dec	hl
	ld	(hl),a
	lda	hl,31(sp)
	ld	a,l
	ld	d,h
	lda	hl,12(sp)
	ld	(hl+),a
	ld	(hl),d
	dec	hl
	ld	c,(hl)
	inc	hl
	ld	b,(hl)
	inc	bc
	inc	bc
	ld	a,(bc)
	dec	hl
	dec	hl
	ld	(hl),a
	push	af
	inc	sp
	lda	hl,15(sp)
	ld	a,(hl)
	push	af
	inc	sp
	call	__muluchar_rrx_s
	lda	sp,2(sp)
	ld	b,d
	ld	c,e
	lda	hl,18(sp)
	dec	hl
	ld	e,(hl)
	inc	hl
	ld	d,(hl)
	ld	a,c
	ld	(de),a
	inc	de
	ld	a,b
	ld	(de),a
;../_mullong.c:708: t.i.lo = bcast(a)->b.b0 * bcast(b)->b.b0;           // A
	lda	hl,13(sp)
	dec	hl
	ld	e,(hl)
	inc	hl
	ld	d,(hl)
	ld	a,(de)
	lda	hl,17(sp)
	ld	(hl),a
	push	af
	inc	sp
	lda	hl,15(sp)
	ld	a,(hl)
	push	af
	inc	sp
	call	__muluchar_rrx_s
	lda	sp,2(sp)
	ld	b,d
	ld	c,e
	lda	hl,20(sp)
	dec	hl
	ld	e,(hl)
	inc	hl
	ld	d,(hl)
	ld	a,c
	ld	(de),a
	inc	de
	ld	a,b
	ld	(de),a
;../_mullong.c:709: t.b.b3 += bcast(a)->b.b3 * bcast(b)->b.b0;          // G
	lda	hl,21(sp)
	ld	c,l
	ld	b,h
	ld	hl,#0x0003
	add	hl,bc
	ld	a,l
	ld	d,h
	lda	hl,19(sp)
	ld	(hl+),a
	ld	(hl),d
	ld	e,a
	ld	a,(de)
	ld	b,a
	lda	hl,16(sp)
	dec	hl
	ld	e,(hl)
	inc	hl
	ld	d,(hl)
	ld	hl,#0x0003
	add	hl,de
	ld	a,l
	ld	d,h
	lda	hl,8(sp)
	ld	(hl+),a
	ld	(hl),d
	ld	e,a
	ld	a,(de)
	ld	c,a
	push	bc
	lda	hl,19(sp)
	ld	a,(hl)
	push	af
	inc	sp
	ld	a,c
	push	af
	inc	sp
	call	__muluchar_rrx_s
	lda	sp,2(sp)
	ld	c,e
	pop	af
	ld	b,a
	add	a,c
	lda	hl,20(sp)
	dec	hl
	ld	e,(hl)
	inc	hl
	ld	d,(hl)
	ld	(de),a
;../_mullong.c:710: t.b.b3 += bcast(a)->b.b2 * bcast(b)->b.b1;          // F
	dec	hl
	ld	e,(hl)
	inc	hl
	ld	d,(hl)
	ld	a,(de)
	lda	hl,10(sp)
	ld	(hl),a
	lda	hl,15(sp)
	ld	c,(hl)
	inc	hl
	ld	b,(hl)
	inc	bc
	inc	bc
	ld	a,(bc)
	lda	hl,7(sp)
	ld	(hl),a
	lda	hl,12(sp)
	ld	c,(hl)
	inc	hl
	ld	b,(hl)
	inc	bc
	ld	a,(bc)
	lda	hl,6(sp)
	ld	(hl),a
	push	af
	inc	sp
	inc	hl
	ld	a,(hl)
	push	af
	inc	sp
	call	__muluchar_rrx_s
	lda	sp,2(sp)
	ld	b,e
	lda	hl,10(sp)
	ld	a,(hl)
	add	a,b
	lda	hl,20(sp)
	dec	hl
	ld	e,(hl)
	inc	hl
	ld	d,(hl)
	ld	(de),a
;../_mullong.c:711: t.i.hi += bcast(a)->b.b2 * bcast(b)->b.b0;          // E <- b lost in .lst
	lda	hl,21(sp)
	ld	c,l
	ld	b,h
	ld	hl,#0x0002
	add	hl,bc
	ld	a,l
	ld	d,h
	lda	hl,19(sp)
	ld	(hl+),a
	ld	(hl),d
	ld	e,a
	ld	a,(de)
	lda	hl,4(sp)
	ld	(hl+),a
	inc	de
	ld	a,(de)
	ld	(hl),a
	lda	hl,17(sp)
	ld	a,(hl)
	push	af
	inc	sp
	lda	hl,8(sp)
	ld	a,(hl)
	push	af
	inc	sp
	call	__muluchar_rrx_s
	lda	sp,2(sp)
	ld	b,d
	ld	c,e
	lda	hl,4(sp)
	ld	a,(hl+)
	ld	h,(hl)
	ld	l,a
	add	hl,bc
	ld	c,l
	ld	b,h
	lda	hl,20(sp)
	dec	hl
	ld	e,(hl)
	inc	hl
	ld	d,(hl)
	ld	a,c
	ld	(de),a
	inc	de
	ld	a,b
	ld	(de),a
;../_mullong.c:713: t.i.hi += bcast(a)->b.b1 * bcast(b)->b.b1;          // D <- b lost in .lst
	dec	hl
	ld	e,(hl)
	inc	hl
	ld	d,(hl)
	ld	a,(de)
	lda	hl,4(sp)
	ld	(hl+),a
	inc	de
	ld	a,(de)
	ld	(hl),a
	lda	hl,15(sp)
	ld	c,(hl)
	inc	hl
	ld	b,(hl)
	inc	bc
	ld	a,(bc)
	lda	hl,7(sp)
	ld	(hl-),a
	ld	a,(hl)
	push	af
	inc	sp
	inc	hl
	ld	a,(hl)
	push	af
	inc	sp
	call	__muluchar_rrx_s
	lda	sp,2(sp)
	ld	b,d
	ld	c,e
	lda	hl,4(sp)
	ld	a,(hl+)
	ld	h,(hl)
	ld	l,a
	add	hl,bc
	ld	c,l
	ld	b,h
	lda	hl,20(sp)
	dec	hl
	ld	e,(hl)
	inc	hl
	ld	d,(hl)
	ld	a,c
	ld	(de),a
	inc	de
	ld	a,b
	ld	(de),a
;../_mullong.c:715: bcast(a)->bi.b3 = bcast(a)->b.b1 * bcast(b)->b.b2;  // C
	lda	hl,11(sp)
	ld	a,(hl)
	push	af
	inc	sp
	lda	hl,8(sp)
	ld	a,(hl)
	push	af
	inc	sp
	call	__muluchar_rrx_s
	lda	sp,2(sp)
	ld	c,e
	lda	hl,9(sp)
	dec	hl
	ld	e,(hl)
	inc	hl
	ld	d,(hl)
	ld	a,c
	ld	(de),a
;../_mullong.c:716: bcast(a)->bi.i12 = bcast(a)->b.b1 * bcast(b)->b.b0; // C
	lda	hl,16(sp)
	dec	hl
	ld	e,(hl)
	inc	hl
	ld	d,(hl)
	ld	hl,#0x0001
	add	hl,de
	ld	a,l
	ld	d,h
	lda	hl,4(sp)
	ld	(hl+),a
	ld	(hl),d
	lda	hl,15(sp)
	ld	c,(hl)
	inc	hl
	ld	b,(hl)
	inc	bc
	ld	a,(bc)
	ld	c,a
	inc	hl
	ld	a,(hl)
	push	af
	inc	sp
	ld	a,c
	push	af
	inc	sp
	call	__muluchar_rrx_s
	lda	sp,2(sp)
	ld	b,d
	ld	c,e
	lda	hl,5(sp)
	dec	hl
	ld	e,(hl)
	inc	hl
	ld	d,(hl)
	ld	a,c
	ld	(de),a
	inc	de
	ld	a,b
	ld	(de),a
;../_mullong.c:718: bcast(b)->bi.b3 = bcast(a)->b.b0 * bcast(b)->b.b3;  // B
	lda	hl,13(sp)
	dec	hl
	ld	e,(hl)
	inc	hl
	ld	d,(hl)
	ld	hl,#0x0003
	add	hl,de
	ld	a,l
	ld	d,h
	lda	hl,4(sp)
	ld	(hl+),a
	ld	(hl),d
	ld	e,a
	ld	a,(de)
	ld	c,a
	push	af
	inc	sp
	lda	hl,15(sp)
	ld	a,(hl)
	push	af
	inc	sp
	call	__muluchar_rrx_s
	lda	sp,2(sp)
	ld	c,e
	lda	hl,5(sp)
	dec	hl
	ld	e,(hl)
	inc	hl
	ld	d,(hl)
	ld	a,c
	ld	(de),a
;../_mullong.c:719: bcast(b)->bi.i12 = bcast(a)->b.b0 * bcast(b)->b.b1; // B
	lda	hl,13(sp)
	dec	hl
	ld	e,(hl)
	inc	hl
	ld	d,(hl)
	ld	hl,#0x0001
	add	hl,de
	ld	a,l
	ld	d,h
	lda	hl,4(sp)
	ld	(hl+),a
	ld	(hl),d
	lda	hl,12(sp)
	ld	c,(hl)
	inc	hl
	ld	b,(hl)
	inc	bc
	ld	a,(bc)
	ld	c,a
	push	af
	inc	sp
	inc	hl
	ld	a,(hl)
	push	af
	inc	sp
	call	__muluchar_rrx_s
	lda	sp,2(sp)
	ld	b,d
	ld	c,e
	lda	hl,5(sp)
	dec	hl
	ld	e,(hl)
	inc	hl
	ld	d,(hl)
	ld	a,c
	ld	(de),a
	inc	de
	ld	a,b
	ld	(de),a
;../_mullong.c:721: bcast(b)->bi.b0 = 0;                                // B
	lda	hl,13(sp)
	dec	hl
	ld	e,(hl)
	inc	hl
	ld	d,(hl)
	ld	a,#0x00
	ld	(de),a
;../_mullong.c:722: bcast(a)->bi.b0 = 0;                                // C
	lda	hl,16(sp)
	dec	hl
	ld	e,(hl)
	inc	hl
	ld	d,(hl)
	ld	a,#0x00
	ld	(de),a
;../_mullong.c:723: t.l += a;
	lda	hl,21(sp)
	ld	c,l
	ld	b,h
	ld	e,c
	ld	d,b
	ld	a,(de)
	lda	hl,0(sp)
	ld	(hl+),a
	inc	de
	ld	a,(de)
	ld	(hl+),a
	inc	de
	ld	a,(de)
	ld	(hl+),a
	inc	de
	ld	a,(de)
	ld	(hl-),a
	dec	hl
	dec	hl
	ld	e,(hl)
	inc	hl
	ld	d,(hl)
	ld	a,e
	lda	hl,27(sp)
	add	a,(hl)
	ld	e,a
	ld	a,d
	inc	hl
	adc	a,(hl)
	push	af
	lda	hl,3(sp)
	ld	(hl-),a
	ld	(hl),e
	lda	hl,5(sp)
	dec	hl
	ld	e,(hl)
	inc	hl
	ld	d,(hl)
	lda	hl,31(sp)
	pop	af
	ld	a,e
	adc	a,(hl)
	ld	e,a
	ld	a,d
	inc	hl
	adc	a,(hl)
	lda	hl,3(sp)
	ld	(hl-),a
	ld	(hl),e
	ld	e,c
	ld	d,b
	dec	hl
	dec	hl
	ld	a,(hl)
	ld	(de),a
	inc	de
	inc	hl
	ld	a,(hl)
	ld	(de),a
	inc	de
	inc	hl
	ld	a,(hl)
	ld	(de),a
	inc	de
	inc	hl
	ld	a,(hl)
	ld	(de),a
;../_mullong.c:725: return t.l + b;
	ld	e,c
	ld	d,b
	ld	a,(de)
	inc	de
	ld	a,(de)
	inc	de
	ld	a,(de)
	inc	de
	ld	a,(de)
	dec	hl
	dec	hl
	dec	hl
	ld	e,(hl)
	inc	hl
	ld	d,(hl)
	ld	a,e
	lda	hl,31(sp)
	add	a,(hl)
	ld	e,a
	ld	a,d
	inc	hl
	adc	a,(hl)
	push	af
	lda	hl,3(sp)
	ld	(hl-),a
	ld	(hl),e
	lda	hl,5(sp)
	dec	hl
	ld	e,(hl)
	inc	hl
	ld	d,(hl)
	lda	hl,35(sp)
	pop	af
	ld	a,e
	adc	a,(hl)
	ld	e,a
	ld	a,d
	inc	hl
	adc	a,(hl)
	lda	hl,3(sp)
	ld	(hl-),a
	ld	(hl),e
	dec	hl
	dec	hl
	ld	e,(hl)
	inc	hl
	ld	d,(hl)
	inc	hl
	ld	a,(hl+)
	ld	h,(hl)
	ld	l,a
00101$:
	lda	sp,25(sp)
	ret
__mullong_end::
	.area _CODE
	.area _CABS
