                              1 ;--------------------------------------------------------
                              2 ; File Created by SDCC : free open source ANSI-C Compiler
                              3 ; Version 2.9.4 #5595 (Oct 23 2013) (Mac OS X ppc)
                              4 ; This file was generated Wed Oct 23 12:26:12 2013
                              5 ;--------------------------------------------------------
                              6 	.module _strncmp
                              7 	.optsdcc -mgbz80
                              8 	
                              9 ;--------------------------------------------------------
                             10 ; Public variables in this module
                             11 ;--------------------------------------------------------
                             12 	.globl _strncmp
                             13 ;--------------------------------------------------------
                             14 ;  ram data
                             15 ;--------------------------------------------------------
                             16 	.area _DATA
                             17 ;--------------------------------------------------------
                             18 ; overlayable items in  ram 
                             19 ;--------------------------------------------------------
                             20 	.area _OVERLAY
                             21 ;--------------------------------------------------------
                             22 ; external initialized ram data
                             23 ;--------------------------------------------------------
                             24 ;--------------------------------------------------------
                             25 ; global & static initialisations
                             26 ;--------------------------------------------------------
                             27 	.area _HOME
                             28 	.area _GSINIT
                             29 	.area _GSFINAL
                             30 	.area _GSINIT
                             31 ;--------------------------------------------------------
                             32 ; Home
                             33 ;--------------------------------------------------------
                             34 	.area _HOME
                             35 	.area _HOME
                             36 ;--------------------------------------------------------
                             37 ; code
                             38 ;--------------------------------------------------------
                             39 	.area _CODE
                             40 ;../_strncmp.c:26: int strncmp (
                             41 ;	---------------------------------
                             42 ; Function strncmp
                             43 ; ---------------------------------
   0000                      44 _strncmp_start::
   0000                      45 _strncmp:
   0000 E8 FA                46 	lda	sp,-6(sp)
                             47 ;../_strncmp.c:32: if (!count)
   0002 F8 0C                48 	lda	hl,12(sp)
   0004 2A                   49 	ld	a,(hl+)
   0005 B6                   50 	or	a,(hl)
   0006 C2r0Fs00             51 	jp	NZ,00114$
                             52 ;../_strncmp.c:33: return(0);
   0009 11 00 00             53 	ld	de,#0x0000
   000C C3r8Ds00             54 	jp	00108$
                             55 ;../_strncmp.c:35: while (--count && *first && *first == *last) {
   000F                      56 00114$:
   000F F8 08                57 	lda	hl,8(sp)
   0011 2A                   58 	ld	a,(hl+)
   0012 5E                   59 	ld	e,(hl)
   0013 F8 00                60 	lda	hl,0(sp)
   0015 22                   61 	ld	(hl+),a
   0016 73                   62 	ld	(hl),e
   0017 F8 0A                63 	lda	hl,10(sp)
   0019 2A                   64 	ld	a,(hl+)
   001A 5E                   65 	ld	e,(hl)
   001B F8 04                66 	lda	hl,4(sp)
   001D 22                   67 	ld	(hl+),a
   001E 73                   68 	ld	(hl),e
   001F F8 0C                69 	lda	hl,12(sp)
   0021 2A                   70 	ld	a,(hl+)
   0022 5E                   71 	ld	e,(hl)
   0023 F8 02                72 	lda	hl,2(sp)
   0025 22                   73 	ld	(hl+),a
   0026 73                   74 	ld	(hl),e
   0027                      75 00105$:
   0027 F8 03                76 	lda	hl,3(sp)
   0029 2B                   77 	dec	hl
   002A 5E                   78 	ld	e,(hl)
   002B 23                   79 	inc	hl
   002C 56                   80 	ld	d,(hl)
   002D 1B                   81 	dec	de
   002E 2B                   82 	dec	hl
   002F 73                   83 	ld	(hl),e
   0030 23                   84 	inc	hl
   0031 72                   85 	ld	(hl),d
   0032 2B                   86 	dec	hl
   0033 2A                   87 	ld	a,(hl+)
   0034 B6                   88 	or	a,(hl)
   0035 CAr67s00             89 	jp	Z,00107$
   0038 2B                   90 	dec	hl
   0039 2B                   91 	dec	hl
   003A 2B                   92 	dec	hl
   003B 5E                   93 	ld	e,(hl)
   003C 23                   94 	inc	hl
   003D 56                   95 	ld	d,(hl)
   003E 1A                   96 	ld	a,(de)
   003F 47                   97 	ld	b,a
   0040 B7                   98 	or	a,a
   0041 CAr67s00             99 	jp	Z,00107$
   0044 F8 05               100 	lda	hl,5(sp)
   0046 2B                  101 	dec	hl
   0047 5E                  102 	ld	e,(hl)
   0048 23                  103 	inc	hl
   0049 56                  104 	ld	d,(hl)
   004A 1A                  105 	ld	a,(de)
   004B 4F                  106 	ld	c,a
   004C 78                  107 	ld	a,b
   004D 91                  108 	sub	a,c
   004E C2r67s00            109 	jp	NZ,00107$
   0051 18 03               110 	jr	00117$
   0053                     111 00116$:
   0053 C3r67s00            112 	jp	00107$
   0056                     113 00117$:
                            114 ;../_strncmp.c:36: first++;
   0056 F8 00               115 	lda	hl,0(sp)
   0058 34                  116 	inc	(hl)
   0059 20 02               117 	jr	NZ,00118$
   005B 23                  118 	inc	hl
   005C 34                  119 	inc	(hl)
   005D                     120 00118$:
                            121 ;../_strncmp.c:37: last++;
   005D F8 04               122 	lda	hl,4(sp)
   005F 34                  123 	inc	(hl)
   0060 20 02               124 	jr	NZ,00119$
   0062 23                  125 	inc	hl
   0063 34                  126 	inc	(hl)
   0064                     127 00119$:
   0064 C3r27s00            128 	jp	00105$
   0067                     129 00107$:
                            130 ;../_strncmp.c:40: return( *first - *last );
   0067 F8 01               131 	lda	hl,1(sp)
   0069 2B                  132 	dec	hl
   006A 5E                  133 	ld	e,(hl)
   006B 23                  134 	inc	hl
   006C 56                  135 	ld	d,(hl)
   006D 1A                  136 	ld	a,(de)
   006E 4F                  137 	ld	c,a
   006F 2B                  138 	dec	hl
   0070 71                  139 	ld	(hl),c
   0071 79                  140 	ld	a,c
   0072 17                  141 	rla	
   0073 9F                  142 	sbc	a,a
   0074 23                  143 	inc	hl
   0075 77                  144 	ld	(hl),a
   0076 F8 05               145 	lda	hl,5(sp)
   0078 2B                  146 	dec	hl
   0079 5E                  147 	ld	e,(hl)
   007A 23                  148 	inc	hl
   007B 56                  149 	ld	d,(hl)
   007C 1A                  150 	ld	a,(de)
   007D 4F                  151 	ld	c,a
   007E 17                  152 	rla	
   007F 9F                  153 	sbc	a,a
   0080 47                  154 	ld	b,a
   0081 F8 01               155 	lda	hl,1(sp)
   0083 2B                  156 	dec	hl
   0084 5E                  157 	ld	e,(hl)
   0085 23                  158 	inc	hl
   0086 56                  159 	ld	d,(hl)
   0087 7B                  160 	ld	a,e
   0088 91                  161 	sub	a,c
   0089 5F                  162 	ld	e,a
   008A 7A                  163 	ld	a,d
   008B 98                  164 	sbc	a,b
   008C 57                  165 	ld	d,a
   008D                     166 00108$:
   008D E8 06               167 	lda	sp,6(sp)
   008F C9                  168 	ret
   0090                     169 _strncmp_end::
                            170 	.area _CODE
                            171 	.area _CABS
