                              1 ;--------------------------------------------------------
                              2 ; File Created by SDCC : free open source ANSI-C Compiler
                              3 ; Version 2.9.4 #5595 (Oct 23 2013) (Mac OS X ppc)
                              4 ; This file was generated Wed Oct 23 12:26:11 2013
                              5 ;--------------------------------------------------------
                              6 	.module asincosf
                              7 	.optsdcc -mgbz80
                              8 	
                              9 ;--------------------------------------------------------
                             10 ; Public variables in this module
                             11 ;--------------------------------------------------------
                             12 	.globl _asincosf
                             13 ;--------------------------------------------------------
                             14 ;  ram data
                             15 ;--------------------------------------------------------
                             16 	.area _DATA
   0000                      17 _asincosf_a_1_1:
   0000                      18 	.ds 8
   0008                      19 _asincosf_b_1_1:
   0008                      20 	.ds 8
                             21 ;--------------------------------------------------------
                             22 ; overlayable items in  ram 
                             23 ;--------------------------------------------------------
                             24 	.area _OVERLAY
                             25 ;--------------------------------------------------------
                             26 ; external initialized ram data
                             27 ;--------------------------------------------------------
                             28 ;--------------------------------------------------------
                             29 ; global & static initialisations
                             30 ;--------------------------------------------------------
                             31 	.area _HOME
                             32 	.area _GSINIT
                             33 	.area _GSFINAL
                             34 	.area _GSINIT
                             35 ;../asincosf.c:43: static const float a[2] = { 0.0, QUART_PI };
   0000 21r00s00             36 	ld	hl,#_asincosf_a_1_1
   0003 CDr00s00             37 	call	__initrleblock
   0006 F8 00                38 	.db	#-8,#0x00
   0008 00                   39 	.db	0
                             40 ;../asincosf.c:44: static const float b[2] = { HALF_PI, QUART_PI };
   0009 21r08s00             41 	ld	hl,#_asincosf_b_1_1
   000C CDr00s00             42 	call	__initrleblock
   000F 01                   43 	.db	1
   0010 01                   44 	.db	0x01
   0011 F9 00                45 	.db	#-7,#0x00
   0013 00                   46 	.db	0
                             47 ;--------------------------------------------------------
                             48 ; Home
                             49 ;--------------------------------------------------------
                             50 	.area _HOME
                             51 	.area _HOME
                             52 ;--------------------------------------------------------
                             53 ; code
                             54 ;--------------------------------------------------------
                             55 	.area _CODE
                             56 ;../asincosf.c:37: float asincosf(const float x, const BOOL isacos)
                             57 ;	---------------------------------
                             58 ; Function asincosf
                             59 ; ---------------------------------
   0000                      60 _asincosf_start::
   0000                      61 _asincosf:
   0000 E8 EC                62 	lda	sp,-20(sp)
                             63 ;../asincosf.c:41: BOOL quartPI = isacos;
   0002 F8 1A                64 	lda	hl,26(sp)
   0004 46                   65 	ld	b,(hl)
                             66 ;../asincosf.c:46: y = fabsf(x);
   0005 C5                   67 	push	bc
   0006 2B                   68 	dec	hl
   0007 2B                   69 	dec	hl
   0008 2A                   70 	ld	a,(hl+)
   0009 66                   71 	ld	h,(hl)
   000A 6F                   72 	ld	l,a
   000B E5                   73 	push	hl
   000C F8 1A                74 	lda	hl,26(sp)
   000E 2A                   75 	ld	a,(hl+)
   000F 66                   76 	ld	h,(hl)
   0010 6F                   77 	ld	l,a
   0011 E5                   78 	push	hl
   0012 CDr00s00             79 	call	_fabsf
   0015 E8 04                80 	lda	sp,4(sp)
   0017 E5                   81 	push	hl
   0018 F8 14                82 	lda	hl,20(sp)
   001A 73                   83 	ld	(hl),e
   001B 23                   84 	inc	hl
   001C 72                   85 	ld	(hl),d
   001D D1                   86 	pop	de
   001E 23                   87 	inc	hl
   001F 73                   88 	ld	(hl),e
   0020 23                   89 	inc	hl
   0021 72                   90 	ld	(hl),d
   0022 C1                   91 	pop	bc
                             92 ;../asincosf.c:47: if (y < EPS)
   0023 C5                   93 	push	bc
   0024 21 80 39             94 	ld	hl,#0x3980
   0027 E5                   95 	push	hl
   0028 21 00 00             96 	ld	hl,#0x0000
   002B E5                   97 	push	hl
   002C F8 18                98 	lda	hl,24(sp)
   002E 2A                   99 	ld	a,(hl+)
   002F 66                  100 	ld	h,(hl)
   0030 6F                  101 	ld	l,a
   0031 E5                  102 	push	hl
   0032 F8 18               103 	lda	hl,24(sp)
   0034 2A                  104 	ld	a,(hl+)
   0035 66                  105 	ld	h,(hl)
   0036 6F                  106 	ld	l,a
   0037 E5                  107 	push	hl
   0038 CDr00s00            108 	call	___fslt
   003B E8 08               109 	lda	sp,8(sp)
   003D 4B                  110 	ld	c,e
   003E F1                  111 	pop	af
   003F 47                  112 	ld	b,a
   0040 AF                  113 	xor	a,a
   0041 B1                  114 	or	a,c
   0042 CAr59s00            115 	jp	Z,00107$
                            116 ;../asincosf.c:49: r = y;
   0045 F8 10               117 	lda	hl,16(sp)
   0047 54                  118 	ld	d,h
   0048 5D                  119 	ld	e,l
   0049 F8 08               120 	lda	hl,8(sp)
   004B 1A                  121 	ld	a,(de)
   004C 22                  122 	ld	(hl+),a
   004D 13                  123 	inc	de
   004E 1A                  124 	ld	a,(de)
   004F 22                  125 	ld	(hl+),a
   0050 13                  126 	inc	de
   0051 1A                  127 	ld	a,(de)
   0052 22                  128 	ld	(hl+),a
   0053 13                  129 	inc	de
   0054 1A                  130 	ld	a,(de)
   0055 77                  131 	ld	(hl),a
   0056 C3r41s03            132 	jp	00108$
   0059                     133 00107$:
                            134 ;../asincosf.c:53: if (y > 0.5)
   0059 C5                  135 	push	bc
   005A 21 00 3F            136 	ld	hl,#0x3F00
   005D E5                  137 	push	hl
   005E 21 00 00            138 	ld	hl,#0x0000
   0061 E5                  139 	push	hl
   0062 F8 18               140 	lda	hl,24(sp)
   0064 2A                  141 	ld	a,(hl+)
   0065 66                  142 	ld	h,(hl)
   0066 6F                  143 	ld	l,a
   0067 E5                  144 	push	hl
   0068 F8 18               145 	lda	hl,24(sp)
   006A 2A                  146 	ld	a,(hl+)
   006B 66                  147 	ld	h,(hl)
   006C 6F                  148 	ld	l,a
   006D E5                  149 	push	hl
   006E CDr00s00            150 	call	___fsgt
   0071 E8 08               151 	lda	sp,8(sp)
   0073 4B                  152 	ld	c,e
   0074 F1                  153 	pop	af
   0075 47                  154 	ld	b,a
   0076 AF                  155 	xor	a,a
   0077 B1                  156 	or	a,c
   0078 CAr8Bs01            157 	jp	Z,00104$
                            158 ;../asincosf.c:55: quartPI = !isacos;
   007B AF                  159 	xor	a,a
   007C B0                  160 	or	a,b
   007D D6 01               161 	sub	a,#0x01
   007F 3E 00               162 	ld	a,#0x00
   0081 17                  163 	rla
   0082 47                  164 	ld	b,a
                            165 ;../asincosf.c:56: if (y > 1.0)
   0083 C5                  166 	push	bc
   0084 21 80 3F            167 	ld	hl,#0x3F80
   0087 E5                  168 	push	hl
   0088 21 00 00            169 	ld	hl,#0x0000
   008B E5                  170 	push	hl
   008C F8 18               171 	lda	hl,24(sp)
   008E 2A                  172 	ld	a,(hl+)
   008F 66                  173 	ld	h,(hl)
   0090 6F                  174 	ld	l,a
   0091 E5                  175 	push	hl
   0092 F8 18               176 	lda	hl,24(sp)
   0094 2A                  177 	ld	a,(hl+)
   0095 66                  178 	ld	h,(hl)
   0096 6F                  179 	ld	l,a
   0097 E5                  180 	push	hl
   0098 CDr00s00            181 	call	___fsgt
   009B E8 08               182 	lda	sp,8(sp)
   009D 4B                  183 	ld	c,e
   009E F1                  184 	pop	af
   009F 47                  185 	ld	b,a
   00A0 AF                  186 	xor	a,a
   00A1 B1                  187 	or	a,c
   00A2 CArB8s00            188 	jp	Z,00102$
                            189 ;../asincosf.c:58: errno = EDOM;
   00A5 21r00s00            190 	ld	hl,#_errno
   00A8 36 21               191 	ld	(hl),#0x21
   00AA 21r01s00            192 	ld	hl,#_errno + 1
   00AD 36 00               193 	ld	(hl),#0x00
                            194 ;../asincosf.c:59: return 0.0;
   00AF 11 00 00            195 	ld	de,#0x0000
   00B2 21 00 00            196 	ld	hl,#0x0000
   00B5 C3r18s05            197 	jp	00117$
   00B8                     198 00102$:
                            199 ;../asincosf.c:61: g = (0.5 - y) + 0.5;
   00B8 C5                  200 	push	bc
   00B9 F8 14               201 	lda	hl,20(sp)
   00BB 2A                  202 	ld	a,(hl+)
   00BC 66                  203 	ld	h,(hl)
   00BD 6F                  204 	ld	l,a
   00BE E5                  205 	push	hl
   00BF F8 14               206 	lda	hl,20(sp)
   00C1 2A                  207 	ld	a,(hl+)
   00C2 66                  208 	ld	h,(hl)
   00C3 6F                  209 	ld	l,a
   00C4 E5                  210 	push	hl
   00C5 21 80 3F            211 	ld	hl,#0x3F80
   00C8 E5                  212 	push	hl
   00C9 21 00 00            213 	ld	hl,#0x0000
   00CC E5                  214 	push	hl
   00CD CDr00s00            215 	call	___fssub
   00D0 E8 08               216 	lda	sp,8(sp)
   00D2 E5                  217 	push	hl
   00D3 F8 10               218 	lda	hl,16(sp)
   00D5 73                  219 	ld	(hl),e
   00D6 23                  220 	inc	hl
   00D7 72                  221 	ld	(hl),d
   00D8 D1                  222 	pop	de
   00D9 23                  223 	inc	hl
   00DA 73                  224 	ld	(hl),e
   00DB 23                  225 	inc	hl
   00DC 72                  226 	ld	(hl),d
   00DD C1                  227 	pop	bc
                            228 ;../asincosf.c:62: g = ldexpf(g, -1);
   00DE C5                  229 	push	bc
   00DF 21 FF FF            230 	ld	hl,#0xFFFFFFFF
   00E2 E5                  231 	push	hl
   00E3 F8 12               232 	lda	hl,18(sp)
   00E5 2A                  233 	ld	a,(hl+)
   00E6 66                  234 	ld	h,(hl)
   00E7 6F                  235 	ld	l,a
   00E8 E5                  236 	push	hl
   00E9 F8 12               237 	lda	hl,18(sp)
   00EB 2A                  238 	ld	a,(hl+)
   00EC 66                  239 	ld	h,(hl)
   00ED 6F                  240 	ld	l,a
   00EE E5                  241 	push	hl
   00EF CDr00s00            242 	call	_ldexpf
   00F2 E8 06               243 	lda	sp,6(sp)
   00F4 E5                  244 	push	hl
   00F5 F8 08               245 	lda	hl,8(sp)
   00F7 73                  246 	ld	(hl),e
   00F8 23                  247 	inc	hl
   00F9 72                  248 	ld	(hl),d
   00FA D1                  249 	pop	de
   00FB 23                  250 	inc	hl
   00FC 73                  251 	ld	(hl),e
   00FD 23                  252 	inc	hl
   00FE 72                  253 	ld	(hl),d
   00FF C1                  254 	pop	bc
   0100 F8 04               255 	lda	hl,4(sp)
   0102 54                  256 	ld	d,h
   0103 5D                  257 	ld	e,l
   0104 F8 0C               258 	lda	hl,12(sp)
   0106 1A                  259 	ld	a,(de)
   0107 22                  260 	ld	(hl+),a
   0108 13                  261 	inc	de
   0109 1A                  262 	ld	a,(de)
   010A 22                  263 	ld	(hl+),a
   010B 13                  264 	inc	de
   010C 1A                  265 	ld	a,(de)
   010D 22                  266 	ld	(hl+),a
   010E 13                  267 	inc	de
   010F 1A                  268 	ld	a,(de)
   0110 77                  269 	ld	(hl),a
                            270 ;../asincosf.c:63: y = sqrtf(g);
   0111 C5                  271 	push	bc
   0112 F8 10               272 	lda	hl,16(sp)
   0114 2A                  273 	ld	a,(hl+)
   0115 66                  274 	ld	h,(hl)
   0116 6F                  275 	ld	l,a
   0117 E5                  276 	push	hl
   0118 F8 10               277 	lda	hl,16(sp)
   011A 2A                  278 	ld	a,(hl+)
   011B 66                  279 	ld	h,(hl)
   011C 6F                  280 	ld	l,a
   011D E5                  281 	push	hl
   011E CDr00s00            282 	call	_sqrtf
   0121 E8 04               283 	lda	sp,4(sp)
   0123 E5                  284 	push	hl
   0124 F8 08               285 	lda	hl,8(sp)
   0126 73                  286 	ld	(hl),e
   0127 23                  287 	inc	hl
   0128 72                  288 	ld	(hl),d
   0129 D1                  289 	pop	de
   012A 23                  290 	inc	hl
   012B 73                  291 	ld	(hl),e
   012C 23                  292 	inc	hl
   012D 72                  293 	ld	(hl),d
   012E C1                  294 	pop	bc
   012F F8 04               295 	lda	hl,4(sp)
   0131 54                  296 	ld	d,h
   0132 5D                  297 	ld	e,l
   0133 F8 10               298 	lda	hl,16(sp)
   0135 1A                  299 	ld	a,(de)
   0136 22                  300 	ld	(hl+),a
   0137 13                  301 	inc	de
   0138 1A                  302 	ld	a,(de)
   0139 22                  303 	ld	(hl+),a
   013A 13                  304 	inc	de
   013B 1A                  305 	ld	a,(de)
   013C 22                  306 	ld	(hl+),a
   013D 13                  307 	inc	de
   013E 1A                  308 	ld	a,(de)
   013F 77                  309 	ld	(hl),a
                            310 ;../asincosf.c:64: y = -(y + y);
   0140 C5                  311 	push	bc
   0141 F8 14               312 	lda	hl,20(sp)
   0143 2A                  313 	ld	a,(hl+)
   0144 66                  314 	ld	h,(hl)
   0145 6F                  315 	ld	l,a
   0146 E5                  316 	push	hl
   0147 F8 14               317 	lda	hl,20(sp)
   0149 2A                  318 	ld	a,(hl+)
   014A 66                  319 	ld	h,(hl)
   014B 6F                  320 	ld	l,a
   014C E5                  321 	push	hl
   014D F8 18               322 	lda	hl,24(sp)
   014F 2A                  323 	ld	a,(hl+)
   0150 66                  324 	ld	h,(hl)
   0151 6F                  325 	ld	l,a
   0152 E5                  326 	push	hl
   0153 F8 18               327 	lda	hl,24(sp)
   0155 2A                  328 	ld	a,(hl+)
   0156 66                  329 	ld	h,(hl)
   0157 6F                  330 	ld	l,a
   0158 E5                  331 	push	hl
   0159 CDr00s00            332 	call	___fsadd
   015C E8 08               333 	lda	sp,8(sp)
   015E E5                  334 	push	hl
   015F F8 08               335 	lda	hl,8(sp)
   0161 73                  336 	ld	(hl),e
   0162 23                  337 	inc	hl
   0163 72                  338 	ld	(hl),d
   0164 D1                  339 	pop	de
   0165 23                  340 	inc	hl
   0166 73                  341 	ld	(hl),e
   0167 23                  342 	inc	hl
   0168 72                  343 	ld	(hl),d
   0169 C1                  344 	pop	bc
   016A F8 07               345 	lda	hl,7(sp)
   016C 7E                  346 	ld	a,(hl)
   016D EE 80               347 	xor	a,#0x80
   016F 77                  348 	ld	(hl),a
   0170 F8 04               349 	lda	hl,4(sp)
   0172 7E                  350 	ld	a,(hl)
   0173 22                  351 	ld	(hl+),a
   0174 7E                  352 	ld	a,(hl)
   0175 22                  353 	ld	(hl+),a
   0176 7E                  354 	ld	a,(hl)
   0177 32                  355 	ld	(hl-),a
   0178 2B                  356 	dec	hl
   0179 54                  357 	ld	d,h
   017A 5D                  358 	ld	e,l
   017B F8 10               359 	lda	hl,16(sp)
   017D 1A                  360 	ld	a,(de)
   017E 22                  361 	ld	(hl+),a
   017F 13                  362 	inc	de
   0180 1A                  363 	ld	a,(de)
   0181 22                  364 	ld	(hl+),a
   0182 13                  365 	inc	de
   0183 1A                  366 	ld	a,(de)
   0184 22                  367 	ld	(hl+),a
   0185 13                  368 	inc	de
   0186 1A                  369 	ld	a,(de)
   0187 77                  370 	ld	(hl),a
   0188 C3rC6s01            371 	jp	00105$
   018B                     372 00104$:
                            373 ;../asincosf.c:68: g = y * y;
   018B C5                  374 	push	bc
   018C F8 14               375 	lda	hl,20(sp)
   018E 2A                  376 	ld	a,(hl+)
   018F 66                  377 	ld	h,(hl)
   0190 6F                  378 	ld	l,a
   0191 E5                  379 	push	hl
   0192 F8 14               380 	lda	hl,20(sp)
   0194 2A                  381 	ld	a,(hl+)
   0195 66                  382 	ld	h,(hl)
   0196 6F                  383 	ld	l,a
   0197 E5                  384 	push	hl
   0198 F8 18               385 	lda	hl,24(sp)
   019A 2A                  386 	ld	a,(hl+)
   019B 66                  387 	ld	h,(hl)
   019C 6F                  388 	ld	l,a
   019D E5                  389 	push	hl
   019E F8 18               390 	lda	hl,24(sp)
   01A0 2A                  391 	ld	a,(hl+)
   01A1 66                  392 	ld	h,(hl)
   01A2 6F                  393 	ld	l,a
   01A3 E5                  394 	push	hl
   01A4 CDr00s00            395 	call	___fsmul
   01A7 E8 08               396 	lda	sp,8(sp)
   01A9 E5                  397 	push	hl
   01AA F8 08               398 	lda	hl,8(sp)
   01AC 73                  399 	ld	(hl),e
   01AD 23                  400 	inc	hl
   01AE 72                  401 	ld	(hl),d
   01AF D1                  402 	pop	de
   01B0 23                  403 	inc	hl
   01B1 73                  404 	ld	(hl),e
   01B2 23                  405 	inc	hl
   01B3 72                  406 	ld	(hl),d
   01B4 C1                  407 	pop	bc
   01B5 F8 04               408 	lda	hl,4(sp)
   01B7 54                  409 	ld	d,h
   01B8 5D                  410 	ld	e,l
   01B9 F8 0C               411 	lda	hl,12(sp)
   01BB 1A                  412 	ld	a,(de)
   01BC 22                  413 	ld	(hl+),a
   01BD 13                  414 	inc	de
   01BE 1A                  415 	ld	a,(de)
   01BF 22                  416 	ld	(hl+),a
   01C0 13                  417 	inc	de
   01C1 1A                  418 	ld	a,(de)
   01C2 22                  419 	ld	(hl+),a
   01C3 13                  420 	inc	de
   01C4 1A                  421 	ld	a,(de)
   01C5 77                  422 	ld	(hl),a
   01C6                     423 00105$:
                            424 ;../asincosf.c:70: r = y + y * ((P(g) * g) / Q(g));
   01C6 C5                  425 	push	bc
   01C7 F8 10               426 	lda	hl,16(sp)
   01C9 2A                  427 	ld	a,(hl+)
   01CA 66                  428 	ld	h,(hl)
   01CB 6F                  429 	ld	l,a
   01CC E5                  430 	push	hl
   01CD F8 10               431 	lda	hl,16(sp)
   01CF 2A                  432 	ld	a,(hl+)
   01D0 66                  433 	ld	h,(hl)
   01D1 6F                  434 	ld	l,a
   01D2 E5                  435 	push	hl
   01D3 21 01 BF            436 	ld	hl,#0xBF01
   01D6 E5                  437 	push	hl
   01D7 21 65 20            438 	ld	hl,#0x2065
   01DA E5                  439 	push	hl
   01DB CDr00s00            440 	call	___fsmul
   01DE E8 08               441 	lda	sp,8(sp)
   01E0 E5                  442 	push	hl
   01E1 F8 08               443 	lda	hl,8(sp)
   01E3 73                  444 	ld	(hl),e
   01E4 23                  445 	inc	hl
   01E5 72                  446 	ld	(hl),d
   01E6 D1                  447 	pop	de
   01E7 23                  448 	inc	hl
   01E8 73                  449 	ld	(hl),e
   01E9 23                  450 	inc	hl
   01EA 72                  451 	ld	(hl),d
   01EB C1                  452 	pop	bc
   01EC C5                  453 	push	bc
   01ED 21 6F 3F            454 	ld	hl,#0x3F6F
   01F0 E5                  455 	push	hl
   01F1 21 6B 16            456 	ld	hl,#0x166B
   01F4 E5                  457 	push	hl
   01F5 F8 0C               458 	lda	hl,12(sp)
   01F7 2A                  459 	ld	a,(hl+)
   01F8 66                  460 	ld	h,(hl)
   01F9 6F                  461 	ld	l,a
   01FA E5                  462 	push	hl
   01FB F8 0C               463 	lda	hl,12(sp)
   01FD 2A                  464 	ld	a,(hl+)
   01FE 66                  465 	ld	h,(hl)
   01FF 6F                  466 	ld	l,a
   0200 E5                  467 	push	hl
   0201 CDr00s00            468 	call	___fsadd
   0204 E8 08               469 	lda	sp,8(sp)
   0206 E5                  470 	push	hl
   0207 F8 08               471 	lda	hl,8(sp)
   0209 73                  472 	ld	(hl),e
   020A 23                  473 	inc	hl
   020B 72                  474 	ld	(hl),d
   020C D1                  475 	pop	de
   020D 23                  476 	inc	hl
   020E 73                  477 	ld	(hl),e
   020F 23                  478 	inc	hl
   0210 72                  479 	ld	(hl),d
   0211 C1                  480 	pop	bc
   0212 C5                  481 	push	bc
   0213 F8 10               482 	lda	hl,16(sp)
   0215 2A                  483 	ld	a,(hl+)
   0216 66                  484 	ld	h,(hl)
   0217 6F                  485 	ld	l,a
   0218 E5                  486 	push	hl
   0219 F8 10               487 	lda	hl,16(sp)
   021B 2A                  488 	ld	a,(hl+)
   021C 66                  489 	ld	h,(hl)
   021D 6F                  490 	ld	l,a
   021E E5                  491 	push	hl
   021F F8 0C               492 	lda	hl,12(sp)
   0221 2A                  493 	ld	a,(hl+)
   0222 66                  494 	ld	h,(hl)
   0223 6F                  495 	ld	l,a
   0224 E5                  496 	push	hl
   0225 F8 0C               497 	lda	hl,12(sp)
   0227 2A                  498 	ld	a,(hl+)
   0228 66                  499 	ld	h,(hl)
   0229 6F                  500 	ld	l,a
   022A E5                  501 	push	hl
   022B CDr00s00            502 	call	___fsmul
   022E E8 08               503 	lda	sp,8(sp)
   0230 E5                  504 	push	hl
   0231 F8 08               505 	lda	hl,8(sp)
   0233 73                  506 	ld	(hl),e
   0234 23                  507 	inc	hl
   0235 72                  508 	ld	(hl),d
   0236 D1                  509 	pop	de
   0237 23                  510 	inc	hl
   0238 73                  511 	ld	(hl),e
   0239 23                  512 	inc	hl
   023A 72                  513 	ld	(hl),d
   023B C1                  514 	pop	bc
   023C C5                  515 	push	bc
   023D 21 B1 C0            516 	ld	hl,#0xC0B1
   0240 E5                  517 	push	hl
   0241 21 0B 8D            518 	ld	hl,#0x8D0B
   0244 E5                  519 	push	hl
   0245 F8 14               520 	lda	hl,20(sp)
   0247 2A                  521 	ld	a,(hl+)
   0248 66                  522 	ld	h,(hl)
   0249 6F                  523 	ld	l,a
   024A E5                  524 	push	hl
   024B F8 14               525 	lda	hl,20(sp)
   024D 2A                  526 	ld	a,(hl+)
   024E 66                  527 	ld	h,(hl)
   024F 6F                  528 	ld	l,a
   0250 E5                  529 	push	hl
   0251 CDr00s00            530 	call	___fsadd
   0254 E8 08               531 	lda	sp,8(sp)
   0256 E5                  532 	push	hl
   0257 F8 04               533 	lda	hl,4(sp)
   0259 73                  534 	ld	(hl),e
   025A 23                  535 	inc	hl
   025B 72                  536 	ld	(hl),d
   025C D1                  537 	pop	de
   025D 23                  538 	inc	hl
   025E 73                  539 	ld	(hl),e
   025F 23                  540 	inc	hl
   0260 72                  541 	ld	(hl),d
   0261 C1                  542 	pop	bc
   0262 C5                  543 	push	bc
   0263 F8 10               544 	lda	hl,16(sp)
   0265 2A                  545 	ld	a,(hl+)
   0266 66                  546 	ld	h,(hl)
   0267 6F                  547 	ld	l,a
   0268 E5                  548 	push	hl
   0269 F8 10               549 	lda	hl,16(sp)
   026B 2A                  550 	ld	a,(hl+)
   026C 66                  551 	ld	h,(hl)
   026D 6F                  552 	ld	l,a
   026E E5                  553 	push	hl
   026F F8 08               554 	lda	hl,8(sp)
   0271 2A                  555 	ld	a,(hl+)
   0272 66                  556 	ld	h,(hl)
   0273 6F                  557 	ld	l,a
   0274 E5                  558 	push	hl
   0275 F8 08               559 	lda	hl,8(sp)
   0277 2A                  560 	ld	a,(hl+)
   0278 66                  561 	ld	h,(hl)
   0279 6F                  562 	ld	l,a
   027A E5                  563 	push	hl
   027B CDr00s00            564 	call	___fsmul
   027E E8 08               565 	lda	sp,8(sp)
   0280 E5                  566 	push	hl
   0281 F8 04               567 	lda	hl,4(sp)
   0283 73                  568 	ld	(hl),e
   0284 23                  569 	inc	hl
   0285 72                  570 	ld	(hl),d
   0286 D1                  571 	pop	de
   0287 23                  572 	inc	hl
   0288 73                  573 	ld	(hl),e
   0289 23                  574 	inc	hl
   028A 72                  575 	ld	(hl),d
   028B C1                  576 	pop	bc
   028C C5                  577 	push	bc
   028D 21 B3 40            578 	ld	hl,#0x40B3
   0290 E5                  579 	push	hl
   0291 21 F0 50            580 	ld	hl,#0x50F0
   0294 E5                  581 	push	hl
   0295 F8 08               582 	lda	hl,8(sp)
   0297 2A                  583 	ld	a,(hl+)
   0298 66                  584 	ld	h,(hl)
   0299 6F                  585 	ld	l,a
   029A E5                  586 	push	hl
   029B F8 08               587 	lda	hl,8(sp)
   029D 2A                  588 	ld	a,(hl+)
   029E 66                  589 	ld	h,(hl)
   029F 6F                  590 	ld	l,a
   02A0 E5                  591 	push	hl
   02A1 CDr00s00            592 	call	___fsadd
   02A4 E8 08               593 	lda	sp,8(sp)
   02A6 E5                  594 	push	hl
   02A7 F8 04               595 	lda	hl,4(sp)
   02A9 73                  596 	ld	(hl),e
   02AA 23                  597 	inc	hl
   02AB 72                  598 	ld	(hl),d
   02AC D1                  599 	pop	de
   02AD 23                  600 	inc	hl
   02AE 73                  601 	ld	(hl),e
   02AF 23                  602 	inc	hl
   02B0 72                  603 	ld	(hl),d
   02B1 C1                  604 	pop	bc
   02B2 C5                  605 	push	bc
   02B3 F8 04               606 	lda	hl,4(sp)
   02B5 2A                  607 	ld	a,(hl+)
   02B6 66                  608 	ld	h,(hl)
   02B7 6F                  609 	ld	l,a
   02B8 E5                  610 	push	hl
   02B9 F8 04               611 	lda	hl,4(sp)
   02BB 2A                  612 	ld	a,(hl+)
   02BC 66                  613 	ld	h,(hl)
   02BD 6F                  614 	ld	l,a
   02BE E5                  615 	push	hl
   02BF F8 0C               616 	lda	hl,12(sp)
   02C1 2A                  617 	ld	a,(hl+)
   02C2 66                  618 	ld	h,(hl)
   02C3 6F                  619 	ld	l,a
   02C4 E5                  620 	push	hl
   02C5 F8 0C               621 	lda	hl,12(sp)
   02C7 2A                  622 	ld	a,(hl+)
   02C8 66                  623 	ld	h,(hl)
   02C9 6F                  624 	ld	l,a
   02CA E5                  625 	push	hl
   02CB CDr00s00            626 	call	___fsdiv
   02CE E8 08               627 	lda	sp,8(sp)
   02D0 E5                  628 	push	hl
   02D1 F8 04               629 	lda	hl,4(sp)
   02D3 73                  630 	ld	(hl),e
   02D4 23                  631 	inc	hl
   02D5 72                  632 	ld	(hl),d
   02D6 D1                  633 	pop	de
   02D7 23                  634 	inc	hl
   02D8 73                  635 	ld	(hl),e
   02D9 23                  636 	inc	hl
   02DA 72                  637 	ld	(hl),d
   02DB C1                  638 	pop	bc
   02DC C5                  639 	push	bc
   02DD F8 04               640 	lda	hl,4(sp)
   02DF 2A                  641 	ld	a,(hl+)
   02E0 66                  642 	ld	h,(hl)
   02E1 6F                  643 	ld	l,a
   02E2 E5                  644 	push	hl
   02E3 F8 04               645 	lda	hl,4(sp)
   02E5 2A                  646 	ld	a,(hl+)
   02E6 66                  647 	ld	h,(hl)
   02E7 6F                  648 	ld	l,a
   02E8 E5                  649 	push	hl
   02E9 F8 18               650 	lda	hl,24(sp)
   02EB 2A                  651 	ld	a,(hl+)
   02EC 66                  652 	ld	h,(hl)
   02ED 6F                  653 	ld	l,a
   02EE E5                  654 	push	hl
   02EF F8 18               655 	lda	hl,24(sp)
   02F1 2A                  656 	ld	a,(hl+)
   02F2 66                  657 	ld	h,(hl)
   02F3 6F                  658 	ld	l,a
   02F4 E5                  659 	push	hl
   02F5 CDr00s00            660 	call	___fsmul
   02F8 E8 08               661 	lda	sp,8(sp)
   02FA E5                  662 	push	hl
   02FB F8 04               663 	lda	hl,4(sp)
   02FD 73                  664 	ld	(hl),e
   02FE 23                  665 	inc	hl
   02FF 72                  666 	ld	(hl),d
   0300 D1                  667 	pop	de
   0301 23                  668 	inc	hl
   0302 73                  669 	ld	(hl),e
   0303 23                  670 	inc	hl
   0304 72                  671 	ld	(hl),d
   0305 C1                  672 	pop	bc
   0306 C5                  673 	push	bc
   0307 F8 04               674 	lda	hl,4(sp)
   0309 2A                  675 	ld	a,(hl+)
   030A 66                  676 	ld	h,(hl)
   030B 6F                  677 	ld	l,a
   030C E5                  678 	push	hl
   030D F8 04               679 	lda	hl,4(sp)
   030F 2A                  680 	ld	a,(hl+)
   0310 66                  681 	ld	h,(hl)
   0311 6F                  682 	ld	l,a
   0312 E5                  683 	push	hl
   0313 F8 18               684 	lda	hl,24(sp)
   0315 2A                  685 	ld	a,(hl+)
   0316 66                  686 	ld	h,(hl)
   0317 6F                  687 	ld	l,a
   0318 E5                  688 	push	hl
   0319 F8 18               689 	lda	hl,24(sp)
   031B 2A                  690 	ld	a,(hl+)
   031C 66                  691 	ld	h,(hl)
   031D 6F                  692 	ld	l,a
   031E E5                  693 	push	hl
   031F CDr00s00            694 	call	___fsadd
   0322 E8 08               695 	lda	sp,8(sp)
   0324 E5                  696 	push	hl
   0325 F8 04               697 	lda	hl,4(sp)
   0327 73                  698 	ld	(hl),e
   0328 23                  699 	inc	hl
   0329 72                  700 	ld	(hl),d
   032A D1                  701 	pop	de
   032B 23                  702 	inc	hl
   032C 73                  703 	ld	(hl),e
   032D 23                  704 	inc	hl
   032E 72                  705 	ld	(hl),d
   032F C1                  706 	pop	bc
   0330 F8 00               707 	lda	hl,0(sp)
   0332 54                  708 	ld	d,h
   0333 5D                  709 	ld	e,l
   0334 F8 08               710 	lda	hl,8(sp)
   0336 1A                  711 	ld	a,(de)
   0337 22                  712 	ld	(hl+),a
   0338 13                  713 	inc	de
   0339 1A                  714 	ld	a,(de)
   033A 22                  715 	ld	(hl+),a
   033B 13                  716 	inc	de
   033C 1A                  717 	ld	a,(de)
   033D 22                  718 	ld	(hl+),a
   033E 13                  719 	inc	de
   033F 1A                  720 	ld	a,(de)
   0340 77                  721 	ld	(hl),a
   0341                     722 00108$:
                            723 ;../asincosf.c:73: if (isacos)
   0341 AF                  724 	xor	a,a
   0342 F8 1A               725 	lda	hl,26(sp)
   0344 B6                  726 	or	a,(hl)
   0345 CAr66s04            727 	jp	Z,00115$
                            728 ;../asincosf.c:75: if (x < 0.0)
   0348 C5                  729 	push	bc
   0349 21 00 00            730 	ld	hl,#0x0000
   034C E5                  731 	push	hl
   034D 21 00 00            732 	ld	hl,#0x0000
   0350 E5                  733 	push	hl
   0351 F8 1E               734 	lda	hl,30(sp)
   0353 2A                  735 	ld	a,(hl+)
   0354 66                  736 	ld	h,(hl)
   0355 6F                  737 	ld	l,a
   0356 E5                  738 	push	hl
   0357 F8 1E               739 	lda	hl,30(sp)
   0359 2A                  740 	ld	a,(hl+)
   035A 66                  741 	ld	h,(hl)
   035B 6F                  742 	ld	l,a
   035C E5                  743 	push	hl
   035D CDr00s00            744 	call	___fslt
   0360 E8 08               745 	lda	sp,8(sp)
   0362 4B                  746 	ld	c,e
   0363 F1                  747 	pop	af
   0364 47                  748 	ld	b,a
   0365 AF                  749 	xor	a,a
   0366 B1                  750 	or	a,c
   0367 CArE8s03            751 	jp	Z,00110$
                            752 ;../asincosf.c:76: r = (b[i] + r) + b[i];
   036A 78                  753 	ld	a,b
   036B 87                  754 	add	a,a
   036C 87                  755 	add	a,a
   036D C6r08               756 	add	a,#<(_asincosf_b_1_1)
   036F 4F                  757 	ld	c,a
   0370 3Es00               758 	ld	a,#>(_asincosf_b_1_1)
   0372 CE 00               759 	adc	a,#0x00
   0374 47                  760 	ld	b,a
   0375 59                  761 	ld	e,c
   0376 50                  762 	ld	d,b
   0377 1A                  763 	ld	a,(de)
   0378 F8 00               764 	lda	hl,0(sp)
   037A 22                  765 	ld	(hl+),a
   037B 13                  766 	inc	de
   037C 1A                  767 	ld	a,(de)
   037D 22                  768 	ld	(hl+),a
   037E 13                  769 	inc	de
   037F 1A                  770 	ld	a,(de)
   0380 22                  771 	ld	(hl+),a
   0381 13                  772 	inc	de
   0382 1A                  773 	ld	a,(de)
   0383 77                  774 	ld	(hl),a
   0384 F8 0A               775 	lda	hl,10(sp)
   0386 2A                  776 	ld	a,(hl+)
   0387 66                  777 	ld	h,(hl)
   0388 6F                  778 	ld	l,a
   0389 E5                  779 	push	hl
   038A F8 0A               780 	lda	hl,10(sp)
   038C 2A                  781 	ld	a,(hl+)
   038D 66                  782 	ld	h,(hl)
   038E 6F                  783 	ld	l,a
   038F E5                  784 	push	hl
   0390 F8 06               785 	lda	hl,6(sp)
   0392 2A                  786 	ld	a,(hl+)
   0393 66                  787 	ld	h,(hl)
   0394 6F                  788 	ld	l,a
   0395 E5                  789 	push	hl
   0396 F8 06               790 	lda	hl,6(sp)
   0398 2A                  791 	ld	a,(hl+)
   0399 66                  792 	ld	h,(hl)
   039A 6F                  793 	ld	l,a
   039B E5                  794 	push	hl
   039C CDr00s00            795 	call	___fsadd
   039F E8 08               796 	lda	sp,8(sp)
   03A1 E5                  797 	push	hl
   03A2 F8 06               798 	lda	hl,6(sp)
   03A4 73                  799 	ld	(hl),e
   03A5 23                  800 	inc	hl
   03A6 72                  801 	ld	(hl),d
   03A7 D1                  802 	pop	de
   03A8 23                  803 	inc	hl
   03A9 73                  804 	ld	(hl),e
   03AA 23                  805 	inc	hl
   03AB 72                  806 	ld	(hl),d
   03AC F8 02               807 	lda	hl,2(sp)
   03AE 2A                  808 	ld	a,(hl+)
   03AF 66                  809 	ld	h,(hl)
   03B0 6F                  810 	ld	l,a
   03B1 E5                  811 	push	hl
   03B2 F8 02               812 	lda	hl,2(sp)
   03B4 2A                  813 	ld	a,(hl+)
   03B5 66                  814 	ld	h,(hl)
   03B6 6F                  815 	ld	l,a
   03B7 E5                  816 	push	hl
   03B8 F8 0A               817 	lda	hl,10(sp)
   03BA 2A                  818 	ld	a,(hl+)
   03BB 66                  819 	ld	h,(hl)
   03BC 6F                  820 	ld	l,a
   03BD E5                  821 	push	hl
   03BE F8 0A               822 	lda	hl,10(sp)
   03C0 2A                  823 	ld	a,(hl+)
   03C1 66                  824 	ld	h,(hl)
   03C2 6F                  825 	ld	l,a
   03C3 E5                  826 	push	hl
   03C4 CDr00s00            827 	call	___fsadd
   03C7 E8 08               828 	lda	sp,8(sp)
   03C9 E5                  829 	push	hl
   03CA F8 02               830 	lda	hl,2(sp)
   03CC 73                  831 	ld	(hl),e
   03CD 23                  832 	inc	hl
   03CE 72                  833 	ld	(hl),d
   03CF D1                  834 	pop	de
   03D0 23                  835 	inc	hl
   03D1 73                  836 	ld	(hl),e
   03D2 23                  837 	inc	hl
   03D3 72                  838 	ld	(hl),d
   03D4 F8 00               839 	lda	hl,0(sp)
   03D6 54                  840 	ld	d,h
   03D7 5D                  841 	ld	e,l
   03D8 F8 08               842 	lda	hl,8(sp)
   03DA 1A                  843 	ld	a,(de)
   03DB 22                  844 	ld	(hl+),a
   03DC 13                  845 	inc	de
   03DD 1A                  846 	ld	a,(de)
   03DE 22                  847 	ld	(hl+),a
   03DF 13                  848 	inc	de
   03E0 1A                  849 	ld	a,(de)
   03E1 22                  850 	ld	(hl+),a
   03E2 13                  851 	inc	de
   03E3 1A                  852 	ld	a,(de)
   03E4 77                  853 	ld	(hl),a
   03E5 C3r0Es05            854 	jp	00116$
   03E8                     855 00110$:
                            856 ;../asincosf.c:78: r = (a[i] - r) + a[i];
   03E8 78                  857 	ld	a,b
   03E9 87                  858 	add	a,a
   03EA 87                  859 	add	a,a
   03EB C6r00               860 	add	a,#<(_asincosf_a_1_1)
   03ED 4F                  861 	ld	c,a
   03EE 3Es00               862 	ld	a,#>(_asincosf_a_1_1)
   03F0 CE 00               863 	adc	a,#0x00
   03F2 47                  864 	ld	b,a
   03F3 59                  865 	ld	e,c
   03F4 50                  866 	ld	d,b
   03F5 1A                  867 	ld	a,(de)
   03F6 F8 00               868 	lda	hl,0(sp)
   03F8 22                  869 	ld	(hl+),a
   03F9 13                  870 	inc	de
   03FA 1A                  871 	ld	a,(de)
   03FB 22                  872 	ld	(hl+),a
   03FC 13                  873 	inc	de
   03FD 1A                  874 	ld	a,(de)
   03FE 22                  875 	ld	(hl+),a
   03FF 13                  876 	inc	de
   0400 1A                  877 	ld	a,(de)
   0401 77                  878 	ld	(hl),a
   0402 F8 0A               879 	lda	hl,10(sp)
   0404 2A                  880 	ld	a,(hl+)
   0405 66                  881 	ld	h,(hl)
   0406 6F                  882 	ld	l,a
   0407 E5                  883 	push	hl
   0408 F8 0A               884 	lda	hl,10(sp)
   040A 2A                  885 	ld	a,(hl+)
   040B 66                  886 	ld	h,(hl)
   040C 6F                  887 	ld	l,a
   040D E5                  888 	push	hl
   040E F8 06               889 	lda	hl,6(sp)
   0410 2A                  890 	ld	a,(hl+)
   0411 66                  891 	ld	h,(hl)
   0412 6F                  892 	ld	l,a
   0413 E5                  893 	push	hl
   0414 F8 06               894 	lda	hl,6(sp)
   0416 2A                  895 	ld	a,(hl+)
   0417 66                  896 	ld	h,(hl)
   0418 6F                  897 	ld	l,a
   0419 E5                  898 	push	hl
   041A CDr00s00            899 	call	___fssub
   041D E8 08               900 	lda	sp,8(sp)
   041F E5                  901 	push	hl
   0420 F8 06               902 	lda	hl,6(sp)
   0422 73                  903 	ld	(hl),e
   0423 23                  904 	inc	hl
   0424 72                  905 	ld	(hl),d
   0425 D1                  906 	pop	de
   0426 23                  907 	inc	hl
   0427 73                  908 	ld	(hl),e
   0428 23                  909 	inc	hl
   0429 72                  910 	ld	(hl),d
   042A F8 02               911 	lda	hl,2(sp)
   042C 2A                  912 	ld	a,(hl+)
   042D 66                  913 	ld	h,(hl)
   042E 6F                  914 	ld	l,a
   042F E5                  915 	push	hl
   0430 F8 02               916 	lda	hl,2(sp)
   0432 2A                  917 	ld	a,(hl+)
   0433 66                  918 	ld	h,(hl)
   0434 6F                  919 	ld	l,a
   0435 E5                  920 	push	hl
   0436 F8 0A               921 	lda	hl,10(sp)
   0438 2A                  922 	ld	a,(hl+)
   0439 66                  923 	ld	h,(hl)
   043A 6F                  924 	ld	l,a
   043B E5                  925 	push	hl
   043C F8 0A               926 	lda	hl,10(sp)
   043E 2A                  927 	ld	a,(hl+)
   043F 66                  928 	ld	h,(hl)
   0440 6F                  929 	ld	l,a
   0441 E5                  930 	push	hl
   0442 CDr00s00            931 	call	___fsadd
   0445 E8 08               932 	lda	sp,8(sp)
   0447 E5                  933 	push	hl
   0448 F8 02               934 	lda	hl,2(sp)
   044A 73                  935 	ld	(hl),e
   044B 23                  936 	inc	hl
   044C 72                  937 	ld	(hl),d
   044D D1                  938 	pop	de
   044E 23                  939 	inc	hl
   044F 73                  940 	ld	(hl),e
   0450 23                  941 	inc	hl
   0451 72                  942 	ld	(hl),d
   0452 F8 00               943 	lda	hl,0(sp)
   0454 54                  944 	ld	d,h
   0455 5D                  945 	ld	e,l
   0456 F8 08               946 	lda	hl,8(sp)
   0458 1A                  947 	ld	a,(de)
   0459 22                  948 	ld	(hl+),a
   045A 13                  949 	inc	de
   045B 1A                  950 	ld	a,(de)
   045C 22                  951 	ld	(hl+),a
   045D 13                  952 	inc	de
   045E 1A                  953 	ld	a,(de)
   045F 22                  954 	ld	(hl+),a
   0460 13                  955 	inc	de
   0461 1A                  956 	ld	a,(de)
   0462 77                  957 	ld	(hl),a
   0463 C3r0Es05            958 	jp	00116$
   0466                     959 00115$:
                            960 ;../asincosf.c:82: r = (a[i] + r) + a[i];
   0466 78                  961 	ld	a,b
   0467 87                  962 	add	a,a
   0468 87                  963 	add	a,a
   0469 C6r00               964 	add	a,#<(_asincosf_a_1_1)
   046B 4F                  965 	ld	c,a
   046C 3Es00               966 	ld	a,#>(_asincosf_a_1_1)
   046E CE 00               967 	adc	a,#0x00
   0470 47                  968 	ld	b,a
   0471 59                  969 	ld	e,c
   0472 50                  970 	ld	d,b
   0473 1A                  971 	ld	a,(de)
   0474 F8 00               972 	lda	hl,0(sp)
   0476 22                  973 	ld	(hl+),a
   0477 13                  974 	inc	de
   0478 1A                  975 	ld	a,(de)
   0479 22                  976 	ld	(hl+),a
   047A 13                  977 	inc	de
   047B 1A                  978 	ld	a,(de)
   047C 22                  979 	ld	(hl+),a
   047D 13                  980 	inc	de
   047E 1A                  981 	ld	a,(de)
   047F 77                  982 	ld	(hl),a
   0480 F8 0A               983 	lda	hl,10(sp)
   0482 2A                  984 	ld	a,(hl+)
   0483 66                  985 	ld	h,(hl)
   0484 6F                  986 	ld	l,a
   0485 E5                  987 	push	hl
   0486 F8 0A               988 	lda	hl,10(sp)
   0488 2A                  989 	ld	a,(hl+)
   0489 66                  990 	ld	h,(hl)
   048A 6F                  991 	ld	l,a
   048B E5                  992 	push	hl
   048C F8 06               993 	lda	hl,6(sp)
   048E 2A                  994 	ld	a,(hl+)
   048F 66                  995 	ld	h,(hl)
   0490 6F                  996 	ld	l,a
   0491 E5                  997 	push	hl
   0492 F8 06               998 	lda	hl,6(sp)
   0494 2A                  999 	ld	a,(hl+)
   0495 66                 1000 	ld	h,(hl)
   0496 6F                 1001 	ld	l,a
   0497 E5                 1002 	push	hl
   0498 CDr00s00           1003 	call	___fsadd
   049B E8 08              1004 	lda	sp,8(sp)
   049D E5                 1005 	push	hl
   049E F8 06              1006 	lda	hl,6(sp)
   04A0 73                 1007 	ld	(hl),e
   04A1 23                 1008 	inc	hl
   04A2 72                 1009 	ld	(hl),d
   04A3 D1                 1010 	pop	de
   04A4 23                 1011 	inc	hl
   04A5 73                 1012 	ld	(hl),e
   04A6 23                 1013 	inc	hl
   04A7 72                 1014 	ld	(hl),d
   04A8 F8 02              1015 	lda	hl,2(sp)
   04AA 2A                 1016 	ld	a,(hl+)
   04AB 66                 1017 	ld	h,(hl)
   04AC 6F                 1018 	ld	l,a
   04AD E5                 1019 	push	hl
   04AE F8 02              1020 	lda	hl,2(sp)
   04B0 2A                 1021 	ld	a,(hl+)
   04B1 66                 1022 	ld	h,(hl)
   04B2 6F                 1023 	ld	l,a
   04B3 E5                 1024 	push	hl
   04B4 F8 0A              1025 	lda	hl,10(sp)
   04B6 2A                 1026 	ld	a,(hl+)
   04B7 66                 1027 	ld	h,(hl)
   04B8 6F                 1028 	ld	l,a
   04B9 E5                 1029 	push	hl
   04BA F8 0A              1030 	lda	hl,10(sp)
   04BC 2A                 1031 	ld	a,(hl+)
   04BD 66                 1032 	ld	h,(hl)
   04BE 6F                 1033 	ld	l,a
   04BF E5                 1034 	push	hl
   04C0 CDr00s00           1035 	call	___fsadd
   04C3 E8 08              1036 	lda	sp,8(sp)
   04C5 E5                 1037 	push	hl
   04C6 F8 02              1038 	lda	hl,2(sp)
   04C8 73                 1039 	ld	(hl),e
   04C9 23                 1040 	inc	hl
   04CA 72                 1041 	ld	(hl),d
   04CB D1                 1042 	pop	de
   04CC 23                 1043 	inc	hl
   04CD 73                 1044 	ld	(hl),e
   04CE 23                 1045 	inc	hl
   04CF 72                 1046 	ld	(hl),d
   04D0 F8 00              1047 	lda	hl,0(sp)
   04D2 54                 1048 	ld	d,h
   04D3 5D                 1049 	ld	e,l
   04D4 F8 08              1050 	lda	hl,8(sp)
   04D6 1A                 1051 	ld	a,(de)
   04D7 22                 1052 	ld	(hl+),a
   04D8 13                 1053 	inc	de
   04D9 1A                 1054 	ld	a,(de)
   04DA 22                 1055 	ld	(hl+),a
   04DB 13                 1056 	inc	de
   04DC 1A                 1057 	ld	a,(de)
   04DD 22                 1058 	ld	(hl+),a
   04DE 13                 1059 	inc	de
   04DF 1A                 1060 	ld	a,(de)
   04E0 77                 1061 	ld	(hl),a
                           1062 ;../asincosf.c:83: if (x < 0.0)
   04E1 21 00 00           1063 	ld	hl,#0x0000
   04E4 E5                 1064 	push	hl
   04E5 21 00 00           1065 	ld	hl,#0x0000
   04E8 E5                 1066 	push	hl
   04E9 F8 1C              1067 	lda	hl,28(sp)
   04EB 2A                 1068 	ld	a,(hl+)
   04EC 66                 1069 	ld	h,(hl)
   04ED 6F                 1070 	ld	l,a
   04EE E5                 1071 	push	hl
   04EF F8 1C              1072 	lda	hl,28(sp)
   04F1 2A                 1073 	ld	a,(hl+)
   04F2 66                 1074 	ld	h,(hl)
   04F3 6F                 1075 	ld	l,a
   04F4 E5                 1076 	push	hl
   04F5 CDr00s00           1077 	call	___fslt
   04F8 E8 08              1078 	lda	sp,8(sp)
   04FA 4B                 1079 	ld	c,e
   04FB AF                 1080 	xor	a,a
   04FC B1                 1081 	or	a,c
   04FD CAr0Es05           1082 	jp	Z,00116$
                           1083 ;../asincosf.c:84: r = -r;
   0500 F8 0B              1084 	lda	hl,11(sp)
   0502 7E                 1085 	ld	a,(hl)
   0503 EE 80              1086 	xor	a,#0x80
   0505 77                 1087 	ld	(hl),a
   0506 F8 08              1088 	lda	hl,8(sp)
   0508 7E                 1089 	ld	a,(hl)
   0509 22                 1090 	ld	(hl+),a
   050A 7E                 1091 	ld	a,(hl)
   050B 22                 1092 	ld	(hl+),a
   050C 7E                 1093 	ld	a,(hl)
   050D 77                 1094 	ld	(hl),a
   050E                    1095 00116$:
                           1096 ;../asincosf.c:86: return r;
   050E F8 09              1097 	lda	hl,9(sp)
   0510 2B                 1098 	dec	hl
   0511 5E                 1099 	ld	e,(hl)
   0512 23                 1100 	inc	hl
   0513 56                 1101 	ld	d,(hl)
   0514 23                 1102 	inc	hl
   0515 2A                 1103 	ld	a,(hl+)
   0516 66                 1104 	ld	h,(hl)
   0517 6F                 1105 	ld	l,a
   0518                    1106 00117$:
   0518 E8 14              1107 	lda	sp,20(sp)
   051A C9                 1108 	ret
   051B                    1109 _asincosf_end::
                           1110 	.area _CODE
                           1111 	.area _CABS
