                              1 ;--------------------------------------------------------
                              2 ; File Created by SDCC : free open source ANSI-C Compiler
                              3 ; Version 2.9.4 #5595 (Oct 23 2013) (Mac OS X ppc)
                              4 ; This file was generated Wed Oct 23 12:26:11 2013
                              5 ;--------------------------------------------------------
                              6 	.module atanf
                              7 	.optsdcc -mgbz80
                              8 	
                              9 ;--------------------------------------------------------
                             10 ; Public variables in this module
                             11 ;--------------------------------------------------------
                             12 	.globl _atanf
                             13 ;--------------------------------------------------------
                             14 ;  ram data
                             15 ;--------------------------------------------------------
                             16 	.area _DATA
   0000                      17 _atanf_a_1_1:
   0000                      18 	.ds 16
                             19 ;--------------------------------------------------------
                             20 ; overlayable items in  ram 
                             21 ;--------------------------------------------------------
                             22 	.area _OVERLAY
                             23 ;--------------------------------------------------------
                             24 ; external initialized ram data
                             25 ;--------------------------------------------------------
                             26 ;--------------------------------------------------------
                             27 ; global & static initialisations
                             28 ;--------------------------------------------------------
                             29 	.area _HOME
                             30 	.area _GSINIT
                             31 	.area _GSFINAL
                             32 	.area _GSINIT
                             33 ;../atanf.c:49: static myconst float a[]={  0.0, 0.5235987756, 1.5707963268, 1.0471975512 };
   0000 21r00s00             34 	ld	hl,#_atanf_a_1_1
   0003 CDr00s00             35 	call	__initrleblock
   0006 F8 00                36 	.db	#-8,#0x00
   0008 08                   37 	.db	8
   0009 01 00 00 00 01 00    38 	.db	0x01, 0x00, 0x00, 0x00, 0x01, 0x00, 0x00, 0x00
        00 00
   0011 00                   39 	.db	0
                             40 ;--------------------------------------------------------
                             41 ; Home
                             42 ;--------------------------------------------------------
                             43 	.area _HOME
                             44 	.area _HOME
                             45 ;--------------------------------------------------------
                             46 ; code
                             47 ;--------------------------------------------------------
                             48 	.area _CODE
                             49 ;../atanf.c:45: float atanf(const float x) _FLOAT_FUNC_REENTRANT
                             50 ;	---------------------------------
                             51 ; Function atanf
                             52 ; ---------------------------------
   0000                      53 _atanf_start::
   0000                      54 _atanf:
   0000 E8 EA                55 	lda	sp,-22(sp)
                             56 ;../atanf.c:48: int n=0;
   0002 F8 08                57 	lda	hl,8(sp)
   0004 36 00                58 	ld	(hl),#0x00
   0006 23                   59 	inc	hl
   0007 36 00                60 	ld	(hl),#0x00
                             61 ;../atanf.c:51: f=fabsf(x);
   0009 F8 1A                62 	lda	hl,26(sp)
   000B 2A                   63 	ld	a,(hl+)
   000C 66                   64 	ld	h,(hl)
   000D 6F                   65 	ld	l,a
   000E E5                   66 	push	hl
   000F F8 1A                67 	lda	hl,26(sp)
   0011 2A                   68 	ld	a,(hl+)
   0012 66                   69 	ld	h,(hl)
   0013 6F                   70 	ld	l,a
   0014 E5                   71 	push	hl
   0015 CDr00s00             72 	call	_fabsf
   0018 E8 04                73 	lda	sp,4(sp)
   001A E5                   74 	push	hl
   001B F8 14                75 	lda	hl,20(sp)
   001D 73                   76 	ld	(hl),e
   001E 23                   77 	inc	hl
   001F 72                   78 	ld	(hl),d
   0020 D1                   79 	pop	de
   0021 23                   80 	inc	hl
   0022 73                   81 	ld	(hl),e
   0023 23                   82 	inc	hl
   0024 72                   83 	ld	(hl),d
                             84 ;../atanf.c:52: if(f>1.0)
   0025 21 80 3F             85 	ld	hl,#0x3F80
   0028 E5                   86 	push	hl
   0029 21 00 00             87 	ld	hl,#0x0000
   002C E5                   88 	push	hl
   002D F8 18                89 	lda	hl,24(sp)
   002F 2A                   90 	ld	a,(hl+)
   0030 66                   91 	ld	h,(hl)
   0031 6F                   92 	ld	l,a
   0032 E5                   93 	push	hl
   0033 F8 18                94 	lda	hl,24(sp)
   0035 2A                   95 	ld	a,(hl+)
   0036 66                   96 	ld	h,(hl)
   0037 6F                   97 	ld	l,a
   0038 E5                   98 	push	hl
   0039 CDr00s00             99 	call	___fsgt
   003C E8 08               100 	lda	sp,8(sp)
   003E 4B                  101 	ld	c,e
   003F AF                  102 	xor	a,a
   0040 B1                  103 	or	a,c
   0041 CAr80s00            104 	jp	Z,00102$
                            105 ;../atanf.c:54: f=1.0/f;
   0044 F8 14               106 	lda	hl,20(sp)
   0046 2A                  107 	ld	a,(hl+)
   0047 66                  108 	ld	h,(hl)
   0048 6F                  109 	ld	l,a
   0049 E5                  110 	push	hl
   004A F8 14               111 	lda	hl,20(sp)
   004C 2A                  112 	ld	a,(hl+)
   004D 66                  113 	ld	h,(hl)
   004E 6F                  114 	ld	l,a
   004F E5                  115 	push	hl
   0050 21 80 3F            116 	ld	hl,#0x3F80
   0053 E5                  117 	push	hl
   0054 21 00 00            118 	ld	hl,#0x0000
   0057 E5                  119 	push	hl
   0058 CDr00s00            120 	call	___fsdiv
   005B E8 08               121 	lda	sp,8(sp)
   005D E5                  122 	push	hl
   005E F8 06               123 	lda	hl,6(sp)
   0060 73                  124 	ld	(hl),e
   0061 23                  125 	inc	hl
   0062 72                  126 	ld	(hl),d
   0063 D1                  127 	pop	de
   0064 23                  128 	inc	hl
   0065 73                  129 	ld	(hl),e
   0066 23                  130 	inc	hl
   0067 72                  131 	ld	(hl),d
   0068 F8 04               132 	lda	hl,4(sp)
   006A 54                  133 	ld	d,h
   006B 5D                  134 	ld	e,l
   006C F8 12               135 	lda	hl,18(sp)
   006E 1A                  136 	ld	a,(de)
   006F 22                  137 	ld	(hl+),a
   0070 13                  138 	inc	de
   0071 1A                  139 	ld	a,(de)
   0072 22                  140 	ld	(hl+),a
   0073 13                  141 	inc	de
   0074 1A                  142 	ld	a,(de)
   0075 22                  143 	ld	(hl+),a
   0076 13                  144 	inc	de
   0077 1A                  145 	ld	a,(de)
   0078 77                  146 	ld	(hl),a
                            147 ;../atanf.c:55: n=2;
   0079 F8 08               148 	lda	hl,8(sp)
   007B 36 02               149 	ld	(hl),#0x02
   007D 23                  150 	inc	hl
   007E 36 00               151 	ld	(hl),#0x00
   0080                     152 00102$:
                            153 ;../atanf.c:57: if(f>K1)
   0080 21 89 3E            154 	ld	hl,#0x3E89
   0083 E5                  155 	push	hl
   0084 21 A3 30            156 	ld	hl,#0x30A3
   0087 E5                  157 	push	hl
   0088 F8 18               158 	lda	hl,24(sp)
   008A 2A                  159 	ld	a,(hl+)
   008B 66                  160 	ld	h,(hl)
   008C 6F                  161 	ld	l,a
   008D E5                  162 	push	hl
   008E F8 18               163 	lda	hl,24(sp)
   0090 2A                  164 	ld	a,(hl+)
   0091 66                  165 	ld	h,(hl)
   0092 6F                  166 	ld	l,a
   0093 E5                  167 	push	hl
   0094 CDr00s00            168 	call	___fsgt
   0097 E8 08               169 	lda	sp,8(sp)
   0099 4B                  170 	ld	c,e
   009A AF                  171 	xor	a,a
   009B B1                  172 	or	a,c
   009C CAr73s01            173 	jp	Z,00104$
                            174 ;../atanf.c:59: f=((K2*f-1.0)+f)/(K3+f);
   009F F8 14               175 	lda	hl,20(sp)
   00A1 2A                  176 	ld	a,(hl+)
   00A2 66                  177 	ld	h,(hl)
   00A3 6F                  178 	ld	l,a
   00A4 E5                  179 	push	hl
   00A5 F8 14               180 	lda	hl,20(sp)
   00A7 2A                  181 	ld	a,(hl+)
   00A8 66                  182 	ld	h,(hl)
   00A9 6F                  183 	ld	l,a
   00AA E5                  184 	push	hl
   00AB 21 3B 3F            185 	ld	hl,#0x3F3B
   00AE E5                  186 	push	hl
   00AF 21 AF 67            187 	ld	hl,#0x67AF
   00B2 E5                  188 	push	hl
   00B3 CDr00s00            189 	call	___fsmul
   00B6 E8 08               190 	lda	sp,8(sp)
   00B8 E5                  191 	push	hl
   00B9 F8 06               192 	lda	hl,6(sp)
   00BB 73                  193 	ld	(hl),e
   00BC 23                  194 	inc	hl
   00BD 72                  195 	ld	(hl),d
   00BE D1                  196 	pop	de
   00BF 23                  197 	inc	hl
   00C0 73                  198 	ld	(hl),e
   00C1 23                  199 	inc	hl
   00C2 72                  200 	ld	(hl),d
   00C3 21 80 3F            201 	ld	hl,#0x3F80
   00C6 E5                  202 	push	hl
   00C7 21 00 00            203 	ld	hl,#0x0000
   00CA E5                  204 	push	hl
   00CB F8 0A               205 	lda	hl,10(sp)
   00CD 2A                  206 	ld	a,(hl+)
   00CE 66                  207 	ld	h,(hl)
   00CF 6F                  208 	ld	l,a
   00D0 E5                  209 	push	hl
   00D1 F8 0A               210 	lda	hl,10(sp)
   00D3 2A                  211 	ld	a,(hl+)
   00D4 66                  212 	ld	h,(hl)
   00D5 6F                  213 	ld	l,a
   00D6 E5                  214 	push	hl
   00D7 CDr00s00            215 	call	___fssub
   00DA E8 08               216 	lda	sp,8(sp)
   00DC E5                  217 	push	hl
   00DD F8 06               218 	lda	hl,6(sp)
   00DF 73                  219 	ld	(hl),e
   00E0 23                  220 	inc	hl
   00E1 72                  221 	ld	(hl),d
   00E2 D1                  222 	pop	de
   00E3 23                  223 	inc	hl
   00E4 73                  224 	ld	(hl),e
   00E5 23                  225 	inc	hl
   00E6 72                  226 	ld	(hl),d
   00E7 F8 14               227 	lda	hl,20(sp)
   00E9 2A                  228 	ld	a,(hl+)
   00EA 66                  229 	ld	h,(hl)
   00EB 6F                  230 	ld	l,a
   00EC E5                  231 	push	hl
   00ED F8 14               232 	lda	hl,20(sp)
   00EF 2A                  233 	ld	a,(hl+)
   00F0 66                  234 	ld	h,(hl)
   00F1 6F                  235 	ld	l,a
   00F2 E5                  236 	push	hl
   00F3 F8 0A               237 	lda	hl,10(sp)
   00F5 2A                  238 	ld	a,(hl+)
   00F6 66                  239 	ld	h,(hl)
   00F7 6F                  240 	ld	l,a
   00F8 E5                  241 	push	hl
   00F9 F8 0A               242 	lda	hl,10(sp)
   00FB 2A                  243 	ld	a,(hl+)
   00FC 66                  244 	ld	h,(hl)
   00FD 6F                  245 	ld	l,a
   00FE E5                  246 	push	hl
   00FF CDr00s00            247 	call	___fsadd
   0102 E8 08               248 	lda	sp,8(sp)
   0104 E5                  249 	push	hl
   0105 F8 06               250 	lda	hl,6(sp)
   0107 73                  251 	ld	(hl),e
   0108 23                  252 	inc	hl
   0109 72                  253 	ld	(hl),d
   010A D1                  254 	pop	de
   010B 23                  255 	inc	hl
   010C 73                  256 	ld	(hl),e
   010D 23                  257 	inc	hl
   010E 72                  258 	ld	(hl),d
   010F 21 DD 3F            259 	ld	hl,#0x3FDD
   0112 E5                  260 	push	hl
   0113 21 D7 B3            261 	ld	hl,#0xB3D7
   0116 E5                  262 	push	hl
   0117 F8 18               263 	lda	hl,24(sp)
   0119 2A                  264 	ld	a,(hl+)
   011A 66                  265 	ld	h,(hl)
   011B 6F                  266 	ld	l,a
   011C E5                  267 	push	hl
   011D F8 18               268 	lda	hl,24(sp)
   011F 2A                  269 	ld	a,(hl+)
   0120 66                  270 	ld	h,(hl)
   0121 6F                  271 	ld	l,a
   0122 E5                  272 	push	hl
   0123 CDr00s00            273 	call	___fsadd
   0126 E8 08               274 	lda	sp,8(sp)
   0128 E5                  275 	push	hl
   0129 F8 02               276 	lda	hl,2(sp)
   012B 73                  277 	ld	(hl),e
   012C 23                  278 	inc	hl
   012D 72                  279 	ld	(hl),d
   012E D1                  280 	pop	de
   012F 23                  281 	inc	hl
   0130 73                  282 	ld	(hl),e
   0131 23                  283 	inc	hl
   0132 72                  284 	ld	(hl),d
   0133 F8 02               285 	lda	hl,2(sp)
   0135 2A                  286 	ld	a,(hl+)
   0136 66                  287 	ld	h,(hl)
   0137 6F                  288 	ld	l,a
   0138 E5                  289 	push	hl
   0139 F8 02               290 	lda	hl,2(sp)
   013B 2A                  291 	ld	a,(hl+)
   013C 66                  292 	ld	h,(hl)
   013D 6F                  293 	ld	l,a
   013E E5                  294 	push	hl
   013F F8 0A               295 	lda	hl,10(sp)
   0141 2A                  296 	ld	a,(hl+)
   0142 66                  297 	ld	h,(hl)
   0143 6F                  298 	ld	l,a
   0144 E5                  299 	push	hl
   0145 F8 0A               300 	lda	hl,10(sp)
   0147 2A                  301 	ld	a,(hl+)
   0148 66                  302 	ld	h,(hl)
   0149 6F                  303 	ld	l,a
   014A E5                  304 	push	hl
   014B CDr00s00            305 	call	___fsdiv
   014E E8 08               306 	lda	sp,8(sp)
   0150 E5                  307 	push	hl
   0151 F8 02               308 	lda	hl,2(sp)
   0153 73                  309 	ld	(hl),e
   0154 23                  310 	inc	hl
   0155 72                  311 	ld	(hl),d
   0156 D1                  312 	pop	de
   0157 23                  313 	inc	hl
   0158 73                  314 	ld	(hl),e
   0159 23                  315 	inc	hl
   015A 72                  316 	ld	(hl),d
   015B F8 00               317 	lda	hl,0(sp)
   015D 54                  318 	ld	d,h
   015E 5D                  319 	ld	e,l
   015F F8 12               320 	lda	hl,18(sp)
   0161 1A                  321 	ld	a,(de)
   0162 22                  322 	ld	(hl+),a
   0163 13                  323 	inc	de
   0164 1A                  324 	ld	a,(de)
   0165 22                  325 	ld	(hl+),a
   0166 13                  326 	inc	de
   0167 1A                  327 	ld	a,(de)
   0168 22                  328 	ld	(hl+),a
   0169 13                  329 	inc	de
   016A 1A                  330 	ld	a,(de)
   016B 77                  331 	ld	(hl),a
                            332 ;../atanf.c:63: n++;
   016C F8 08               333 	lda	hl,8(sp)
   016E 34                  334 	inc	(hl)
   016F 20 02               335 	jr	NZ,00119$
   0171 23                  336 	inc	hl
   0172 34                  337 	inc	(hl)
   0173                     338 00119$:
   0173                     339 00104$:
                            340 ;../atanf.c:65: if(fabsf(f)<EPS) r=f;
   0173 F8 14               341 	lda	hl,20(sp)
   0175 2A                  342 	ld	a,(hl+)
   0176 66                  343 	ld	h,(hl)
   0177 6F                  344 	ld	l,a
   0178 E5                  345 	push	hl
   0179 F8 14               346 	lda	hl,20(sp)
   017B 2A                  347 	ld	a,(hl+)
   017C 66                  348 	ld	h,(hl)
   017D 6F                  349 	ld	l,a
   017E E5                  350 	push	hl
   017F CDr00s00            351 	call	_fabsf
   0182 E8 04               352 	lda	sp,4(sp)
   0184 E5                  353 	push	hl
   0185 F8 02               354 	lda	hl,2(sp)
   0187 73                  355 	ld	(hl),e
   0188 23                  356 	inc	hl
   0189 72                  357 	ld	(hl),d
   018A D1                  358 	pop	de
   018B 23                  359 	inc	hl
   018C 73                  360 	ld	(hl),e
   018D 23                  361 	inc	hl
   018E 72                  362 	ld	(hl),d
   018F 21 80 39            363 	ld	hl,#0x3980
   0192 E5                  364 	push	hl
   0193 21 00 00            365 	ld	hl,#0x0000
   0196 E5                  366 	push	hl
   0197 F8 06               367 	lda	hl,6(sp)
   0199 2A                  368 	ld	a,(hl+)
   019A 66                  369 	ld	h,(hl)
   019B 6F                  370 	ld	l,a
   019C E5                  371 	push	hl
   019D F8 06               372 	lda	hl,6(sp)
   019F 2A                  373 	ld	a,(hl+)
   01A0 66                  374 	ld	h,(hl)
   01A1 6F                  375 	ld	l,a
   01A2 E5                  376 	push	hl
   01A3 CDr00s00            377 	call	___fslt
   01A6 E8 08               378 	lda	sp,8(sp)
   01A8 4B                  379 	ld	c,e
   01A9 AF                  380 	xor	a,a
   01AA B1                  381 	or	a,c
   01AB CArC2s01            382 	jp	Z,00106$
   01AE F8 12               383 	lda	hl,18(sp)
   01B0 54                  384 	ld	d,h
   01B1 5D                  385 	ld	e,l
   01B2 F8 0E               386 	lda	hl,14(sp)
   01B4 1A                  387 	ld	a,(de)
   01B5 22                  388 	ld	(hl+),a
   01B6 13                  389 	inc	de
   01B7 1A                  390 	ld	a,(de)
   01B8 22                  391 	ld	(hl+),a
   01B9 13                  392 	inc	de
   01BA 1A                  393 	ld	a,(de)
   01BB 22                  394 	ld	(hl+),a
   01BC 13                  395 	inc	de
   01BD 1A                  396 	ld	a,(de)
   01BE 77                  397 	ld	(hl),a
   01BF C3r07s03            398 	jp	00107$
   01C2                     399 00106$:
                            400 ;../atanf.c:68: g=f*f;
   01C2 F8 14               401 	lda	hl,20(sp)
   01C4 2A                  402 	ld	a,(hl+)
   01C5 66                  403 	ld	h,(hl)
   01C6 6F                  404 	ld	l,a
   01C7 E5                  405 	push	hl
   01C8 F8 14               406 	lda	hl,20(sp)
   01CA 2A                  407 	ld	a,(hl+)
   01CB 66                  408 	ld	h,(hl)
   01CC 6F                  409 	ld	l,a
   01CD E5                  410 	push	hl
   01CE F8 18               411 	lda	hl,24(sp)
   01D0 2A                  412 	ld	a,(hl+)
   01D1 66                  413 	ld	h,(hl)
   01D2 6F                  414 	ld	l,a
   01D3 E5                  415 	push	hl
   01D4 F8 18               416 	lda	hl,24(sp)
   01D6 2A                  417 	ld	a,(hl+)
   01D7 66                  418 	ld	h,(hl)
   01D8 6F                  419 	ld	l,a
   01D9 E5                  420 	push	hl
   01DA CDr00s00            421 	call	___fsmul
   01DD E8 08               422 	lda	sp,8(sp)
   01DF E5                  423 	push	hl
   01E0 F8 0C               424 	lda	hl,12(sp)
   01E2 73                  425 	ld	(hl),e
   01E3 23                  426 	inc	hl
   01E4 72                  427 	ld	(hl),d
   01E5 D1                  428 	pop	de
   01E6 23                  429 	inc	hl
   01E7 73                  430 	ld	(hl),e
   01E8 23                  431 	inc	hl
   01E9 72                  432 	ld	(hl),d
                            433 ;../atanf.c:69: r=f+P(g,f)/Q(g);
   01EA F8 0C               434 	lda	hl,12(sp)
   01EC 2A                  435 	ld	a,(hl+)
   01ED 66                  436 	ld	h,(hl)
   01EE 6F                  437 	ld	l,a
   01EF E5                  438 	push	hl
   01F0 F8 0C               439 	lda	hl,12(sp)
   01F2 2A                  440 	ld	a,(hl+)
   01F3 66                  441 	ld	h,(hl)
   01F4 6F                  442 	ld	l,a
   01F5 E5                  443 	push	hl
   01F6 21 50 BD            444 	ld	hl,#0xBD50
   01F9 E5                  445 	push	hl
   01FA 21 91 86            446 	ld	hl,#0x8691
   01FD E5                  447 	push	hl
   01FE CDr00s00            448 	call	___fsmul
   0201 E8 08               449 	lda	sp,8(sp)
   0203 E5                  450 	push	hl
   0204 F8 02               451 	lda	hl,2(sp)
   0206 73                  452 	ld	(hl),e
   0207 23                  453 	inc	hl
   0208 72                  454 	ld	(hl),d
   0209 D1                  455 	pop	de
   020A 23                  456 	inc	hl
   020B 73                  457 	ld	(hl),e
   020C 23                  458 	inc	hl
   020D 72                  459 	ld	(hl),d
   020E 21 F1 BE            460 	ld	hl,#0xBEF1
   0211 E5                  461 	push	hl
   0212 21 F6 10            462 	ld	hl,#0x10F6
   0215 E5                  463 	push	hl
   0216 F8 06               464 	lda	hl,6(sp)
   0218 2A                  465 	ld	a,(hl+)
   0219 66                  466 	ld	h,(hl)
   021A 6F                  467 	ld	l,a
   021B E5                  468 	push	hl
   021C F8 06               469 	lda	hl,6(sp)
   021E 2A                  470 	ld	a,(hl+)
   021F 66                  471 	ld	h,(hl)
   0220 6F                  472 	ld	l,a
   0221 E5                  473 	push	hl
   0222 CDr00s00            474 	call	___fsadd
   0225 E8 08               475 	lda	sp,8(sp)
   0227 E5                  476 	push	hl
   0228 F8 02               477 	lda	hl,2(sp)
   022A 73                  478 	ld	(hl),e
   022B 23                  479 	inc	hl
   022C 72                  480 	ld	(hl),d
   022D D1                  481 	pop	de
   022E 23                  482 	inc	hl
   022F 73                  483 	ld	(hl),e
   0230 23                  484 	inc	hl
   0231 72                  485 	ld	(hl),d
   0232 F8 0C               486 	lda	hl,12(sp)
   0234 2A                  487 	ld	a,(hl+)
   0235 66                  488 	ld	h,(hl)
   0236 6F                  489 	ld	l,a
   0237 E5                  490 	push	hl
   0238 F8 0C               491 	lda	hl,12(sp)
   023A 2A                  492 	ld	a,(hl+)
   023B 66                  493 	ld	h,(hl)
   023C 6F                  494 	ld	l,a
   023D E5                  495 	push	hl
   023E F8 06               496 	lda	hl,6(sp)
   0240 2A                  497 	ld	a,(hl+)
   0241 66                  498 	ld	h,(hl)
   0242 6F                  499 	ld	l,a
   0243 E5                  500 	push	hl
   0244 F8 06               501 	lda	hl,6(sp)
   0246 2A                  502 	ld	a,(hl+)
   0247 66                  503 	ld	h,(hl)
   0248 6F                  504 	ld	l,a
   0249 E5                  505 	push	hl
   024A CDr00s00            506 	call	___fsmul
   024D E8 08               507 	lda	sp,8(sp)
   024F E5                  508 	push	hl
   0250 F8 02               509 	lda	hl,2(sp)
   0252 73                  510 	ld	(hl),e
   0253 23                  511 	inc	hl
   0254 72                  512 	ld	(hl),d
   0255 D1                  513 	pop	de
   0256 23                  514 	inc	hl
   0257 73                  515 	ld	(hl),e
   0258 23                  516 	inc	hl
   0259 72                  517 	ld	(hl),d
   025A F8 14               518 	lda	hl,20(sp)
   025C 2A                  519 	ld	a,(hl+)
   025D 66                  520 	ld	h,(hl)
   025E 6F                  521 	ld	l,a
   025F E5                  522 	push	hl
   0260 F8 14               523 	lda	hl,20(sp)
   0262 2A                  524 	ld	a,(hl+)
   0263 66                  525 	ld	h,(hl)
   0264 6F                  526 	ld	l,a
   0265 E5                  527 	push	hl
   0266 F8 06               528 	lda	hl,6(sp)
   0268 2A                  529 	ld	a,(hl+)
   0269 66                  530 	ld	h,(hl)
   026A 6F                  531 	ld	l,a
   026B E5                  532 	push	hl
   026C F8 06               533 	lda	hl,6(sp)
   026E 2A                  534 	ld	a,(hl+)
   026F 66                  535 	ld	h,(hl)
   0270 6F                  536 	ld	l,a
   0271 E5                  537 	push	hl
   0272 CDr00s00            538 	call	___fsmul
   0275 E8 08               539 	lda	sp,8(sp)
   0277 E5                  540 	push	hl
   0278 F8 02               541 	lda	hl,2(sp)
   027A 73                  542 	ld	(hl),e
   027B 23                  543 	inc	hl
   027C 72                  544 	ld	(hl),d
   027D D1                  545 	pop	de
   027E 23                  546 	inc	hl
   027F 73                  547 	ld	(hl),e
   0280 23                  548 	inc	hl
   0281 72                  549 	ld	(hl),d
   0282 21 B4 3F            550 	ld	hl,#0x3FB4
   0285 E5                  551 	push	hl
   0286 21 D3 CC            552 	ld	hl,#0xCCD3
   0289 E5                  553 	push	hl
   028A F8 10               554 	lda	hl,16(sp)
   028C 2A                  555 	ld	a,(hl+)
   028D 66                  556 	ld	h,(hl)
   028E 6F                  557 	ld	l,a
   028F E5                  558 	push	hl
   0290 F8 10               559 	lda	hl,16(sp)
   0292 2A                  560 	ld	a,(hl+)
   0293 66                  561 	ld	h,(hl)
   0294 6F                  562 	ld	l,a
   0295 E5                  563 	push	hl
   0296 CDr00s00            564 	call	___fsadd
   0299 E8 08               565 	lda	sp,8(sp)
   029B E5                  566 	push	hl
   029C F8 06               567 	lda	hl,6(sp)
   029E 73                  568 	ld	(hl),e
   029F 23                  569 	inc	hl
   02A0 72                  570 	ld	(hl),d
   02A1 D1                  571 	pop	de
   02A2 23                  572 	inc	hl
   02A3 73                  573 	ld	(hl),e
   02A4 23                  574 	inc	hl
   02A5 72                  575 	ld	(hl),d
   02A6 F8 06               576 	lda	hl,6(sp)
   02A8 2A                  577 	ld	a,(hl+)
   02A9 66                  578 	ld	h,(hl)
   02AA 6F                  579 	ld	l,a
   02AB E5                  580 	push	hl
   02AC F8 06               581 	lda	hl,6(sp)
   02AE 2A                  582 	ld	a,(hl+)
   02AF 66                  583 	ld	h,(hl)
   02B0 6F                  584 	ld	l,a
   02B1 E5                  585 	push	hl
   02B2 F8 06               586 	lda	hl,6(sp)
   02B4 2A                  587 	ld	a,(hl+)
   02B5 66                  588 	ld	h,(hl)
   02B6 6F                  589 	ld	l,a
   02B7 E5                  590 	push	hl
   02B8 F8 06               591 	lda	hl,6(sp)
   02BA 2A                  592 	ld	a,(hl+)
   02BB 66                  593 	ld	h,(hl)
   02BC 6F                  594 	ld	l,a
   02BD E5                  595 	push	hl
   02BE CDr00s00            596 	call	___fsdiv
   02C1 E8 08               597 	lda	sp,8(sp)
   02C3 E5                  598 	push	hl
   02C4 F8 02               599 	lda	hl,2(sp)
   02C6 73                  600 	ld	(hl),e
   02C7 23                  601 	inc	hl
   02C8 72                  602 	ld	(hl),d
   02C9 D1                  603 	pop	de
   02CA 23                  604 	inc	hl
   02CB 73                  605 	ld	(hl),e
   02CC 23                  606 	inc	hl
   02CD 72                  607 	ld	(hl),d
   02CE F8 02               608 	lda	hl,2(sp)
   02D0 2A                  609 	ld	a,(hl+)
   02D1 66                  610 	ld	h,(hl)
   02D2 6F                  611 	ld	l,a
   02D3 E5                  612 	push	hl
   02D4 F8 02               613 	lda	hl,2(sp)
   02D6 2A                  614 	ld	a,(hl+)
   02D7 66                  615 	ld	h,(hl)
   02D8 6F                  616 	ld	l,a
   02D9 E5                  617 	push	hl
   02DA F8 18               618 	lda	hl,24(sp)
   02DC 2A                  619 	ld	a,(hl+)
   02DD 66                  620 	ld	h,(hl)
   02DE 6F                  621 	ld	l,a
   02DF E5                  622 	push	hl
   02E0 F8 18               623 	lda	hl,24(sp)
   02E2 2A                  624 	ld	a,(hl+)
   02E3 66                  625 	ld	h,(hl)
   02E4 6F                  626 	ld	l,a
   02E5 E5                  627 	push	hl
   02E6 CDr00s00            628 	call	___fsadd
   02E9 E8 08               629 	lda	sp,8(sp)
   02EB E5                  630 	push	hl
   02EC F8 02               631 	lda	hl,2(sp)
   02EE 73                  632 	ld	(hl),e
   02EF 23                  633 	inc	hl
   02F0 72                  634 	ld	(hl),d
   02F1 D1                  635 	pop	de
   02F2 23                  636 	inc	hl
   02F3 73                  637 	ld	(hl),e
   02F4 23                  638 	inc	hl
   02F5 72                  639 	ld	(hl),d
   02F6 F8 00               640 	lda	hl,0(sp)
   02F8 54                  641 	ld	d,h
   02F9 5D                  642 	ld	e,l
   02FA F8 0E               643 	lda	hl,14(sp)
   02FC 1A                  644 	ld	a,(de)
   02FD 22                  645 	ld	(hl+),a
   02FE 13                  646 	inc	de
   02FF 1A                  647 	ld	a,(de)
   0300 22                  648 	ld	(hl+),a
   0301 13                  649 	inc	de
   0302 1A                  650 	ld	a,(de)
   0303 22                  651 	ld	(hl+),a
   0304 13                  652 	inc	de
   0305 1A                  653 	ld	a,(de)
   0306 77                  654 	ld	(hl),a
   0307                     655 00107$:
                            656 ;../atanf.c:71: if(n>1) r=-r;
   0307 3E 01               657 	ld	a,#0x01
   0309 F8 08               658 	lda	hl,8(sp)
   030B 96                  659 	sub	a,(hl)
   030C 3E 00               660 	ld	a,#0x00
   030E 23                  661 	inc	hl
   030F 9E                  662 	sbc	a,(hl)
   0310 07                  663 	rlca
   0311 D2r22s03            664 	jp	NC,00109$
   0314 F8 11               665 	lda	hl,17(sp)
   0316 7E                  666 	ld	a,(hl)
   0317 EE 80               667 	xor	a,#0x80
   0319 77                  668 	ld	(hl),a
   031A F8 0E               669 	lda	hl,14(sp)
   031C 7E                  670 	ld	a,(hl)
   031D 22                  671 	ld	(hl+),a
   031E 7E                  672 	ld	a,(hl)
   031F 22                  673 	ld	(hl+),a
   0320 7E                  674 	ld	a,(hl)
   0321 77                  675 	ld	(hl),a
   0322                     676 00109$:
                            677 ;../atanf.c:72: r+=a[n];
   0322 F8 08               678 	lda	hl,8(sp)
   0324 4E                  679 	ld	c,(hl)
   0325 23                  680 	inc	hl
   0326 46                  681 	ld	b,(hl)
   0327 CB 21               682 	sla	c
   0329 CB 10               683 	rl	b
   032B CB 21               684 	sla	c
   032D CB 10               685 	rl	b
   032F 21r00s00            686 	ld	hl,#_atanf_a_1_1
   0332 09                  687 	add	hl,bc
   0333 4D                  688 	ld	c,l
   0334 44                  689 	ld	b,h
   0335 59                  690 	ld	e,c
   0336 50                  691 	ld	d,b
   0337 1A                  692 	ld	a,(de)
   0338 F8 00               693 	lda	hl,0(sp)
   033A 22                  694 	ld	(hl+),a
   033B 13                  695 	inc	de
   033C 1A                  696 	ld	a,(de)
   033D 22                  697 	ld	(hl+),a
   033E 13                  698 	inc	de
   033F 1A                  699 	ld	a,(de)
   0340 22                  700 	ld	(hl+),a
   0341 13                  701 	inc	de
   0342 1A                  702 	ld	a,(de)
   0343 32                  703 	ld	(hl-),a
   0344 2A                  704 	ld	a,(hl+)
   0345 66                  705 	ld	h,(hl)
   0346 6F                  706 	ld	l,a
   0347 E5                  707 	push	hl
   0348 F8 02               708 	lda	hl,2(sp)
   034A 2A                  709 	ld	a,(hl+)
   034B 66                  710 	ld	h,(hl)
   034C 6F                  711 	ld	l,a
   034D E5                  712 	push	hl
   034E F8 14               713 	lda	hl,20(sp)
   0350 2A                  714 	ld	a,(hl+)
   0351 66                  715 	ld	h,(hl)
   0352 6F                  716 	ld	l,a
   0353 E5                  717 	push	hl
   0354 F8 14               718 	lda	hl,20(sp)
   0356 2A                  719 	ld	a,(hl+)
   0357 66                  720 	ld	h,(hl)
   0358 6F                  721 	ld	l,a
   0359 E5                  722 	push	hl
   035A CDr00s00            723 	call	___fsadd
   035D E8 08               724 	lda	sp,8(sp)
   035F E5                  725 	push	hl
   0360 F8 02               726 	lda	hl,2(sp)
   0362 73                  727 	ld	(hl),e
   0363 23                  728 	inc	hl
   0364 72                  729 	ld	(hl),d
   0365 D1                  730 	pop	de
   0366 23                  731 	inc	hl
   0367 73                  732 	ld	(hl),e
   0368 23                  733 	inc	hl
   0369 72                  734 	ld	(hl),d
   036A F8 00               735 	lda	hl,0(sp)
   036C 54                  736 	ld	d,h
   036D 5D                  737 	ld	e,l
   036E F8 0E               738 	lda	hl,14(sp)
   0370 1A                  739 	ld	a,(de)
   0371 22                  740 	ld	(hl+),a
   0372 13                  741 	inc	de
   0373 1A                  742 	ld	a,(de)
   0374 22                  743 	ld	(hl+),a
   0375 13                  744 	inc	de
   0376 1A                  745 	ld	a,(de)
   0377 22                  746 	ld	(hl+),a
   0378 13                  747 	inc	de
   0379 1A                  748 	ld	a,(de)
   037A 77                  749 	ld	(hl),a
                            750 ;../atanf.c:73: if(x<0.0) r=-r;
   037B 21 00 00            751 	ld	hl,#0x0000
   037E E5                  752 	push	hl
   037F 21 00 00            753 	ld	hl,#0x0000
   0382 E5                  754 	push	hl
   0383 F8 1E               755 	lda	hl,30(sp)
   0385 2A                  756 	ld	a,(hl+)
   0386 66                  757 	ld	h,(hl)
   0387 6F                  758 	ld	l,a
   0388 E5                  759 	push	hl
   0389 F8 1E               760 	lda	hl,30(sp)
   038B 2A                  761 	ld	a,(hl+)
   038C 66                  762 	ld	h,(hl)
   038D 6F                  763 	ld	l,a
   038E E5                  764 	push	hl
   038F CDr00s00            765 	call	___fslt
   0392 E8 08               766 	lda	sp,8(sp)
   0394 4B                  767 	ld	c,e
   0395 AF                  768 	xor	a,a
   0396 B1                  769 	or	a,c
   0397 CArA8s03            770 	jp	Z,00111$
   039A F8 11               771 	lda	hl,17(sp)
   039C 7E                  772 	ld	a,(hl)
   039D EE 80               773 	xor	a,#0x80
   039F 77                  774 	ld	(hl),a
   03A0 F8 0E               775 	lda	hl,14(sp)
   03A2 7E                  776 	ld	a,(hl)
   03A3 22                  777 	ld	(hl+),a
   03A4 7E                  778 	ld	a,(hl)
   03A5 22                  779 	ld	(hl+),a
   03A6 7E                  780 	ld	a,(hl)
   03A7 77                  781 	ld	(hl),a
   03A8                     782 00111$:
                            783 ;../atanf.c:74: return r;
   03A8 F8 0F               784 	lda	hl,15(sp)
   03AA 2B                  785 	dec	hl
   03AB 5E                  786 	ld	e,(hl)
   03AC 23                  787 	inc	hl
   03AD 56                  788 	ld	d,(hl)
   03AE 23                  789 	inc	hl
   03AF 2A                  790 	ld	a,(hl+)
   03B0 66                  791 	ld	h,(hl)
   03B1 6F                  792 	ld	l,a
   03B2                     793 00112$:
   03B2 E8 16               794 	lda	sp,22(sp)
   03B4 C9                  795 	ret
   03B5                     796 _atanf_end::
                            797 	.area _CODE
                            798 	.area _CABS
