                              1 ;--------------------------------------------------------
                              2 ; File Created by SDCC : free open source ANSI-C Compiler
                              3 ; Version 2.9.4 #5595 (Oct 23 2013) (Mac OS X ppc)
                              4 ; This file was generated Wed Oct 23 12:26:11 2013
                              5 ;--------------------------------------------------------
                              6 	.module sincosf
                              7 	.optsdcc -mgbz80
                              8 	
                              9 ;--------------------------------------------------------
                             10 ; Public variables in this module
                             11 ;--------------------------------------------------------
                             12 	.globl _sincosf
                             13 ;--------------------------------------------------------
                             14 ;  ram data
                             15 ;--------------------------------------------------------
                             16 	.area _DATA
                             17 ;--------------------------------------------------------
                             18 ; overlayable items in  ram 
                             19 ;--------------------------------------------------------
                             20 	.area _OVERLAY
                             21 ;--------------------------------------------------------
                             22 ; external initialized ram data
                             23 ;--------------------------------------------------------
                             24 ;--------------------------------------------------------
                             25 ; global & static initialisations
                             26 ;--------------------------------------------------------
                             27 	.area _HOME
                             28 	.area _GSINIT
                             29 	.area _GSFINAL
                             30 	.area _GSINIT
                             31 ;--------------------------------------------------------
                             32 ; Home
                             33 ;--------------------------------------------------------
                             34 	.area _HOME
                             35 	.area _HOME
                             36 ;--------------------------------------------------------
                             37 ; code
                             38 ;--------------------------------------------------------
                             39 	.area _CODE
                             40 ;../sincosf.c:40: float sincosf(const float x, const BOOL iscos)
                             41 ;	---------------------------------
                             42 ; Function sincosf
                             43 ; ---------------------------------
   0000                      44 _sincosf_start::
   0000                      45 _sincosf:
   0000 E8 E3                46 	lda	sp,-29(sp)
                             47 ;../sincosf.c:46: if(iscos)
   0002 AF                   48 	xor	a,a
   0003 F8 23                49 	lda	hl,35(sp)
   0005 B6                   50 	or	a,(hl)
   0006 CAr50s00             51 	jp	Z,00105$
                             52 ;../sincosf.c:48: y=fabsf(x)+HALF_PI;
   0009 2B                   53 	dec	hl
   000A 2B                   54 	dec	hl
   000B 2A                   55 	ld	a,(hl+)
   000C 66                   56 	ld	h,(hl)
   000D 6F                   57 	ld	l,a
   000E E5                   58 	push	hl
   000F F8 21                59 	lda	hl,33(sp)
   0011 2A                   60 	ld	a,(hl+)
   0012 66                   61 	ld	h,(hl)
   0013 6F                   62 	ld	l,a
   0014 E5                   63 	push	hl
   0015 CDr00s00             64 	call	_fabsf
   0018 E8 04                65 	lda	sp,4(sp)
   001A E5                   66 	push	hl
   001B F8 06                67 	lda	hl,6(sp)
   001D 73                   68 	ld	(hl),e
   001E 23                   69 	inc	hl
   001F 72                   70 	ld	(hl),d
   0020 D1                   71 	pop	de
   0021 23                   72 	inc	hl
   0022 73                   73 	ld	(hl),e
   0023 23                   74 	inc	hl
   0024 72                   75 	ld	(hl),d
   0025 21 C9 3F             76 	ld	hl,#0x3FC9
   0028 E5                   77 	push	hl
   0029 21 DB 0F             78 	ld	hl,#0x0FDB
   002C E5                   79 	push	hl
   002D F8 0A                80 	lda	hl,10(sp)
   002F 2A                   81 	ld	a,(hl+)
   0030 66                   82 	ld	h,(hl)
   0031 6F                   83 	ld	l,a
   0032 E5                   84 	push	hl
   0033 F8 0A                85 	lda	hl,10(sp)
   0035 2A                   86 	ld	a,(hl+)
   0036 66                   87 	ld	h,(hl)
   0037 6F                   88 	ld	l,a
   0038 E5                   89 	push	hl
   0039 CDr00s00             90 	call	___fsadd
   003C E8 08                91 	lda	sp,8(sp)
   003E E5                   92 	push	hl
   003F F8 1B                93 	lda	hl,27(sp)
   0041 73                   94 	ld	(hl),e
   0042 23                   95 	inc	hl
   0043 72                   96 	ld	(hl),d
   0044 D1                   97 	pop	de
   0045 23                   98 	inc	hl
   0046 73                   99 	ld	(hl),e
   0047 23                  100 	inc	hl
   0048 72                  101 	ld	(hl),d
                            102 ;../sincosf.c:49: sign=0;
   0049 F8 08               103 	lda	hl,8(sp)
   004B 36 00               104 	ld	(hl),#0x00
   004D C3rB5s00            105 	jp	00106$
   0050                     106 00105$:
                            107 ;../sincosf.c:53: if(x<0.0)
   0050 21 00 00            108 	ld	hl,#0x0000
   0053 E5                  109 	push	hl
   0054 21 00 00            110 	ld	hl,#0x0000
   0057 E5                  111 	push	hl
   0058 F8 25               112 	lda	hl,37(sp)
   005A 2A                  113 	ld	a,(hl+)
   005B 66                  114 	ld	h,(hl)
   005C 6F                  115 	ld	l,a
   005D E5                  116 	push	hl
   005E F8 25               117 	lda	hl,37(sp)
   0060 2A                  118 	ld	a,(hl+)
   0061 66                  119 	ld	h,(hl)
   0062 6F                  120 	ld	l,a
   0063 E5                  121 	push	hl
   0064 CDr00s00            122 	call	___fslt
   0067 E8 08               123 	lda	sp,8(sp)
   0069 43                  124 	ld	b,e
   006A AF                  125 	xor	a,a
   006B B0                  126 	or	a,b
   006C CArA0s00            127 	jp	Z,00102$
                            128 ;../sincosf.c:54: { y=-x; sign=1; }
   006F F8 22               129 	lda	hl,34(sp)
   0071 7E                  130 	ld	a,(hl)
   0072 EE 80               131 	xor	a,#0x80
   0074 F8 07               132 	lda	hl,7(sp)
   0076 77                  133 	ld	(hl),a
   0077 F8 1F               134 	lda	hl,31(sp)
   0079 7E                  135 	ld	a,(hl)
   007A F8 04               136 	lda	hl,4(sp)
   007C 77                  137 	ld	(hl),a
   007D F8 20               138 	lda	hl,32(sp)
   007F 7E                  139 	ld	a,(hl)
   0080 F8 05               140 	lda	hl,5(sp)
   0082 77                  141 	ld	(hl),a
   0083 F8 21               142 	lda	hl,33(sp)
   0085 7E                  143 	ld	a,(hl)
   0086 F8 06               144 	lda	hl,6(sp)
   0088 32                  145 	ld	(hl-),a
   0089 2B                  146 	dec	hl
   008A 54                  147 	ld	d,h
   008B 5D                  148 	ld	e,l
   008C F8 19               149 	lda	hl,25(sp)
   008E 1A                  150 	ld	a,(de)
   008F 22                  151 	ld	(hl+),a
   0090 13                  152 	inc	de
   0091 1A                  153 	ld	a,(de)
   0092 22                  154 	ld	(hl+),a
   0093 13                  155 	inc	de
   0094 1A                  156 	ld	a,(de)
   0095 22                  157 	ld	(hl+),a
   0096 13                  158 	inc	de
   0097 1A                  159 	ld	a,(de)
   0098 77                  160 	ld	(hl),a
   0099 F8 08               161 	lda	hl,8(sp)
   009B 36 01               162 	ld	(hl),#0x01
   009D C3rB5s00            163 	jp	00106$
   00A0                     164 00102$:
                            165 ;../sincosf.c:56: { y=x; sign=0; }
   00A0 F8 1F               166 	lda	hl,31(sp)
   00A2 54                  167 	ld	d,h
   00A3 5D                  168 	ld	e,l
   00A4 F8 19               169 	lda	hl,25(sp)
   00A6 1A                  170 	ld	a,(de)
   00A7 22                  171 	ld	(hl+),a
   00A8 13                  172 	inc	de
   00A9 1A                  173 	ld	a,(de)
   00AA 22                  174 	ld	(hl+),a
   00AB 13                  175 	inc	de
   00AC 1A                  176 	ld	a,(de)
   00AD 22                  177 	ld	(hl+),a
   00AE 13                  178 	inc	de
   00AF 1A                  179 	ld	a,(de)
   00B0 77                  180 	ld	(hl),a
   00B1 F8 08               181 	lda	hl,8(sp)
   00B3 36 00               182 	ld	(hl),#0x00
   00B5                     183 00106$:
                            184 ;../sincosf.c:59: if(y>YMAX)
   00B5 21 49 46            185 	ld	hl,#0x4649
   00B8 E5                  186 	push	hl
   00B9 21 00 0C            187 	ld	hl,#0x0C00
   00BC E5                  188 	push	hl
   00BD F8 1F               189 	lda	hl,31(sp)
   00BF 2A                  190 	ld	a,(hl+)
   00C0 66                  191 	ld	h,(hl)
   00C1 6F                  192 	ld	l,a
   00C2 E5                  193 	push	hl
   00C3 F8 1F               194 	lda	hl,31(sp)
   00C5 2A                  195 	ld	a,(hl+)
   00C6 66                  196 	ld	h,(hl)
   00C7 6F                  197 	ld	l,a
   00C8 E5                  198 	push	hl
   00C9 CDr00s00            199 	call	___fsgt
   00CC E8 08               200 	lda	sp,8(sp)
   00CE 43                  201 	ld	b,e
   00CF AF                  202 	xor	a,a
   00D0 B0                  203 	or	a,b
   00D1 CArE7s00            204 	jp	Z,00108$
                            205 ;../sincosf.c:61: errno=ERANGE;
   00D4 21r00s00            206 	ld	hl,#_errno
   00D7 36 22               207 	ld	(hl),#0x22
   00D9 21r01s00            208 	ld	hl,#_errno + 1
   00DC 36 00               209 	ld	(hl),#0x00
                            210 ;../sincosf.c:62: return 0.0;
   00DE 11 00 00            211 	ld	de,#0x0000
   00E1 21 00 00            212 	ld	hl,#0x0000
   00E4 C3rEBs04            213 	jp	00115$
   00E7                     214 00108$:
                            215 ;../sincosf.c:66: N=((y*iPI)+0.5); /*y is positive*/
   00E7 F8 1B               216 	lda	hl,27(sp)
   00E9 2A                  217 	ld	a,(hl+)
   00EA 66                  218 	ld	h,(hl)
   00EB 6F                  219 	ld	l,a
   00EC E5                  220 	push	hl
   00ED F8 1B               221 	lda	hl,27(sp)
   00EF 2A                  222 	ld	a,(hl+)
   00F0 66                  223 	ld	h,(hl)
   00F1 6F                  224 	ld	l,a
   00F2 E5                  225 	push	hl
   00F3 21 A2 3E            226 	ld	hl,#0x3EA2
   00F6 E5                  227 	push	hl
   00F7 21 83 F9            228 	ld	hl,#0xF983
   00FA E5                  229 	push	hl
   00FB CDr00s00            230 	call	___fsmul
   00FE E8 08               231 	lda	sp,8(sp)
   0100 E5                  232 	push	hl
   0101 F8 06               233 	lda	hl,6(sp)
   0103 73                  234 	ld	(hl),e
   0104 23                  235 	inc	hl
   0105 72                  236 	ld	(hl),d
   0106 D1                  237 	pop	de
   0107 23                  238 	inc	hl
   0108 73                  239 	ld	(hl),e
   0109 23                  240 	inc	hl
   010A 72                  241 	ld	(hl),d
   010B 21 00 3F            242 	ld	hl,#0x3F00
   010E E5                  243 	push	hl
   010F 21 00 00            244 	ld	hl,#0x0000
   0112 E5                  245 	push	hl
   0113 F8 0A               246 	lda	hl,10(sp)
   0115 2A                  247 	ld	a,(hl+)
   0116 66                  248 	ld	h,(hl)
   0117 6F                  249 	ld	l,a
   0118 E5                  250 	push	hl
   0119 F8 0A               251 	lda	hl,10(sp)
   011B 2A                  252 	ld	a,(hl+)
   011C 66                  253 	ld	h,(hl)
   011D 6F                  254 	ld	l,a
   011E E5                  255 	push	hl
   011F CDr00s00            256 	call	___fsadd
   0122 E8 08               257 	lda	sp,8(sp)
   0124 E5                  258 	push	hl
   0125 F8 06               259 	lda	hl,6(sp)
   0127 73                  260 	ld	(hl),e
   0128 23                  261 	inc	hl
   0129 72                  262 	ld	(hl),d
   012A D1                  263 	pop	de
   012B 23                  264 	inc	hl
   012C 73                  265 	ld	(hl),e
   012D 23                  266 	inc	hl
   012E 72                  267 	ld	(hl),d
   012F F8 06               268 	lda	hl,6(sp)
   0131 2A                  269 	ld	a,(hl+)
   0132 66                  270 	ld	h,(hl)
   0133 6F                  271 	ld	l,a
   0134 E5                  272 	push	hl
   0135 F8 06               273 	lda	hl,6(sp)
   0137 2A                  274 	ld	a,(hl+)
   0138 66                  275 	ld	h,(hl)
   0139 6F                  276 	ld	l,a
   013A E5                  277 	push	hl
   013B CDr00s00            278 	call	___fs2sint
   013E E8 04               279 	lda	sp,4(sp)
   0140 42                  280 	ld	b,d
   0141 4B                  281 	ld	c,e
                            282 ;../sincosf.c:69: if(N&1) sign=!sign;
   0142 79                  283 	ld	a,c
   0143 E6 01               284 	and	a,#0x01
   0145 20 03               285 	jr	NZ,00126$
   0147 C3r54s01            286 	jp	00110$
   014A                     287 00126$:
   014A AF                  288 	xor	a,a
   014B F8 08               289 	lda	hl,8(sp)
   014D B6                  290 	or	a,(hl)
   014E D6 01               291 	sub	a,#0x01
   0150 3E 00               292 	ld	a,#0x00
   0152 17                  293 	rla
   0153 77                  294 	ld	(hl),a
   0154                     295 00110$:
                            296 ;../sincosf.c:71: XN=N;
   0154 C5                  297 	push	bc
   0155 CDr00s00            298 	call	___sint2fs
   0158 E8 02               299 	lda	sp,2(sp)
   015A E5                  300 	push	hl
   015B F8 0B               301 	lda	hl,11(sp)
   015D 73                  302 	ld	(hl),e
   015E 23                  303 	inc	hl
   015F 72                  304 	ld	(hl),d
   0160 D1                  305 	pop	de
   0161 23                  306 	inc	hl
   0162 73                  307 	ld	(hl),e
   0163 23                  308 	inc	hl
   0164 72                  309 	ld	(hl),d
                            310 ;../sincosf.c:73: if(iscos) XN-=0.5;
   0165 AF                  311 	xor	a,a
   0166 F8 23               312 	lda	hl,35(sp)
   0168 B6                  313 	or	a,(hl)
   0169 CArA1s01            314 	jp	Z,00112$
   016C 21 00 3F            315 	ld	hl,#0x3F00
   016F E5                  316 	push	hl
   0170 21 00 00            317 	ld	hl,#0x0000
   0173 E5                  318 	push	hl
   0174 F8 0F               319 	lda	hl,15(sp)
   0176 2A                  320 	ld	a,(hl+)
   0177 66                  321 	ld	h,(hl)
   0178 6F                  322 	ld	l,a
   0179 E5                  323 	push	hl
   017A F8 0F               324 	lda	hl,15(sp)
   017C 2A                  325 	ld	a,(hl+)
   017D 66                  326 	ld	h,(hl)
   017E 6F                  327 	ld	l,a
   017F E5                  328 	push	hl
   0180 CDr00s00            329 	call	___fssub
   0183 E8 08               330 	lda	sp,8(sp)
   0185 E5                  331 	push	hl
   0186 F8 06               332 	lda	hl,6(sp)
   0188 73                  333 	ld	(hl),e
   0189 23                  334 	inc	hl
   018A 72                  335 	ld	(hl),d
   018B D1                  336 	pop	de
   018C 23                  337 	inc	hl
   018D 73                  338 	ld	(hl),e
   018E 23                  339 	inc	hl
   018F 72                  340 	ld	(hl),d
   0190 F8 04               341 	lda	hl,4(sp)
   0192 54                  342 	ld	d,h
   0193 5D                  343 	ld	e,l
   0194 F8 09               344 	lda	hl,9(sp)
   0196 1A                  345 	ld	a,(de)
   0197 22                  346 	ld	(hl+),a
   0198 13                  347 	inc	de
   0199 1A                  348 	ld	a,(de)
   019A 22                  349 	ld	(hl+),a
   019B 13                  350 	inc	de
   019C 1A                  351 	ld	a,(de)
   019D 22                  352 	ld	(hl+),a
   019E 13                  353 	inc	de
   019F 1A                  354 	ld	a,(de)
   01A0 77                  355 	ld	(hl),a
   01A1                     356 00112$:
                            357 ;../sincosf.c:75: y=fabsf(x);
   01A1 F8 21               358 	lda	hl,33(sp)
   01A3 2A                  359 	ld	a,(hl+)
   01A4 66                  360 	ld	h,(hl)
   01A5 6F                  361 	ld	l,a
   01A6 E5                  362 	push	hl
   01A7 F8 21               363 	lda	hl,33(sp)
   01A9 2A                  364 	ld	a,(hl+)
   01AA 66                  365 	ld	h,(hl)
   01AB 6F                  366 	ld	l,a
   01AC E5                  367 	push	hl
   01AD CDr00s00            368 	call	_fabsf
   01B0 E8 04               369 	lda	sp,4(sp)
   01B2 E5                  370 	push	hl
   01B3 F8 06               371 	lda	hl,6(sp)
   01B5 73                  372 	ld	(hl),e
   01B6 23                  373 	inc	hl
   01B7 72                  374 	ld	(hl),d
   01B8 D1                  375 	pop	de
   01B9 23                  376 	inc	hl
   01BA 73                  377 	ld	(hl),e
   01BB 23                  378 	inc	hl
   01BC 72                  379 	ld	(hl),d
   01BD F8 04               380 	lda	hl,4(sp)
   01BF 54                  381 	ld	d,h
   01C0 5D                  382 	ld	e,l
   01C1 F8 19               383 	lda	hl,25(sp)
   01C3 1A                  384 	ld	a,(de)
   01C4 22                  385 	ld	(hl+),a
   01C5 13                  386 	inc	de
   01C6 1A                  387 	ld	a,(de)
   01C7 22                  388 	ld	(hl+),a
   01C8 13                  389 	inc	de
   01C9 1A                  390 	ld	a,(de)
   01CA 22                  391 	ld	(hl+),a
   01CB 13                  392 	inc	de
   01CC 1A                  393 	ld	a,(de)
   01CD 77                  394 	ld	(hl),a
                            395 ;../sincosf.c:76: r=(int)y;
   01CE F8 1B               396 	lda	hl,27(sp)
   01D0 2A                  397 	ld	a,(hl+)
   01D1 66                  398 	ld	h,(hl)
   01D2 6F                  399 	ld	l,a
   01D3 E5                  400 	push	hl
   01D4 F8 1B               401 	lda	hl,27(sp)
   01D6 2A                  402 	ld	a,(hl+)
   01D7 66                  403 	ld	h,(hl)
   01D8 6F                  404 	ld	l,a
   01D9 E5                  405 	push	hl
   01DA CDr00s00            406 	call	___fs2sint
   01DD E8 04               407 	lda	sp,4(sp)
   01DF 42                  408 	ld	b,d
   01E0 4B                  409 	ld	c,e
   01E1 C5                  410 	push	bc
   01E2 CDr00s00            411 	call	___sint2fs
   01E5 E8 02               412 	lda	sp,2(sp)
   01E7 E5                  413 	push	hl
   01E8 F8 13               414 	lda	hl,19(sp)
   01EA 73                  415 	ld	(hl),e
   01EB 23                  416 	inc	hl
   01EC 72                  417 	ld	(hl),d
   01ED D1                  418 	pop	de
   01EE 23                  419 	inc	hl
   01EF 73                  420 	ld	(hl),e
   01F0 23                  421 	inc	hl
   01F1 72                  422 	ld	(hl),d
                            423 ;../sincosf.c:77: g=y-r;
   01F2 F8 13               424 	lda	hl,19(sp)
   01F4 2A                  425 	ld	a,(hl+)
   01F5 66                  426 	ld	h,(hl)
   01F6 6F                  427 	ld	l,a
   01F7 E5                  428 	push	hl
   01F8 F8 13               429 	lda	hl,19(sp)
   01FA 2A                  430 	ld	a,(hl+)
   01FB 66                  431 	ld	h,(hl)
   01FC 6F                  432 	ld	l,a
   01FD E5                  433 	push	hl
   01FE F8 1F               434 	lda	hl,31(sp)
   0200 2A                  435 	ld	a,(hl+)
   0201 66                  436 	ld	h,(hl)
   0202 6F                  437 	ld	l,a
   0203 E5                  438 	push	hl
   0204 F8 1F               439 	lda	hl,31(sp)
   0206 2A                  440 	ld	a,(hl+)
   0207 66                  441 	ld	h,(hl)
   0208 6F                  442 	ld	l,a
   0209 E5                  443 	push	hl
   020A CDr00s00            444 	call	___fssub
   020D E8 08               445 	lda	sp,8(sp)
   020F E5                  446 	push	hl
   0210 F8 0F               447 	lda	hl,15(sp)
   0212 73                  448 	ld	(hl),e
   0213 23                  449 	inc	hl
   0214 72                  450 	ld	(hl),d
   0215 D1                  451 	pop	de
   0216 23                  452 	inc	hl
   0217 73                  453 	ld	(hl),e
   0218 23                  454 	inc	hl
   0219 72                  455 	ld	(hl),d
                            456 ;../sincosf.c:78: f=((r-XN*C1)+g)-XN*C2;
   021A F8 0B               457 	lda	hl,11(sp)
   021C 2A                  458 	ld	a,(hl+)
   021D 66                  459 	ld	h,(hl)
   021E 6F                  460 	ld	l,a
   021F E5                  461 	push	hl
   0220 F8 0B               462 	lda	hl,11(sp)
   0222 2A                  463 	ld	a,(hl+)
   0223 66                  464 	ld	h,(hl)
   0224 6F                  465 	ld	l,a
   0225 E5                  466 	push	hl
   0226 21 49 40            467 	ld	hl,#0x4049
   0229 E5                  468 	push	hl
   022A 21 00 00            469 	ld	hl,#0x0000
   022D E5                  470 	push	hl
   022E CDr00s00            471 	call	___fsmul
   0231 E8 08               472 	lda	sp,8(sp)
   0233 E5                  473 	push	hl
   0234 F8 06               474 	lda	hl,6(sp)
   0236 73                  475 	ld	(hl),e
   0237 23                  476 	inc	hl
   0238 72                  477 	ld	(hl),d
   0239 D1                  478 	pop	de
   023A 23                  479 	inc	hl
   023B 73                  480 	ld	(hl),e
   023C 23                  481 	inc	hl
   023D 72                  482 	ld	(hl),d
   023E F8 06               483 	lda	hl,6(sp)
   0240 2A                  484 	ld	a,(hl+)
   0241 66                  485 	ld	h,(hl)
   0242 6F                  486 	ld	l,a
   0243 E5                  487 	push	hl
   0244 F8 06               488 	lda	hl,6(sp)
   0246 2A                  489 	ld	a,(hl+)
   0247 66                  490 	ld	h,(hl)
   0248 6F                  491 	ld	l,a
   0249 E5                  492 	push	hl
   024A F8 17               493 	lda	hl,23(sp)
   024C 2A                  494 	ld	a,(hl+)
   024D 66                  495 	ld	h,(hl)
   024E 6F                  496 	ld	l,a
   024F E5                  497 	push	hl
   0250 F8 17               498 	lda	hl,23(sp)
   0252 2A                  499 	ld	a,(hl+)
   0253 66                  500 	ld	h,(hl)
   0254 6F                  501 	ld	l,a
   0255 E5                  502 	push	hl
   0256 CDr00s00            503 	call	___fssub
   0259 E8 08               504 	lda	sp,8(sp)
   025B E5                  505 	push	hl
   025C F8 06               506 	lda	hl,6(sp)
   025E 73                  507 	ld	(hl),e
   025F 23                  508 	inc	hl
   0260 72                  509 	ld	(hl),d
   0261 D1                  510 	pop	de
   0262 23                  511 	inc	hl
   0263 73                  512 	ld	(hl),e
   0264 23                  513 	inc	hl
   0265 72                  514 	ld	(hl),d
   0266 F8 0F               515 	lda	hl,15(sp)
   0268 2A                  516 	ld	a,(hl+)
   0269 66                  517 	ld	h,(hl)
   026A 6F                  518 	ld	l,a
   026B E5                  519 	push	hl
   026C F8 0F               520 	lda	hl,15(sp)
   026E 2A                  521 	ld	a,(hl+)
   026F 66                  522 	ld	h,(hl)
   0270 6F                  523 	ld	l,a
   0271 E5                  524 	push	hl
   0272 F8 0A               525 	lda	hl,10(sp)
   0274 2A                  526 	ld	a,(hl+)
   0275 66                  527 	ld	h,(hl)
   0276 6F                  528 	ld	l,a
   0277 E5                  529 	push	hl
   0278 F8 0A               530 	lda	hl,10(sp)
   027A 2A                  531 	ld	a,(hl+)
   027B 66                  532 	ld	h,(hl)
   027C 6F                  533 	ld	l,a
   027D E5                  534 	push	hl
   027E CDr00s00            535 	call	___fsadd
   0281 E8 08               536 	lda	sp,8(sp)
   0283 E5                  537 	push	hl
   0284 F8 06               538 	lda	hl,6(sp)
   0286 73                  539 	ld	(hl),e
   0287 23                  540 	inc	hl
   0288 72                  541 	ld	(hl),d
   0289 D1                  542 	pop	de
   028A 23                  543 	inc	hl
   028B 73                  544 	ld	(hl),e
   028C 23                  545 	inc	hl
   028D 72                  546 	ld	(hl),d
   028E F8 0B               547 	lda	hl,11(sp)
   0290 2A                  548 	ld	a,(hl+)
   0291 66                  549 	ld	h,(hl)
   0292 6F                  550 	ld	l,a
   0293 E5                  551 	push	hl
   0294 F8 0B               552 	lda	hl,11(sp)
   0296 2A                  553 	ld	a,(hl+)
   0297 66                  554 	ld	h,(hl)
   0298 6F                  555 	ld	l,a
   0299 E5                  556 	push	hl
   029A 21 7D 3A            557 	ld	hl,#0x3A7D
   029D E5                  558 	push	hl
   029E 21 22 AA            559 	ld	hl,#0xAA22
   02A1 E5                  560 	push	hl
   02A2 CDr00s00            561 	call	___fsmul
   02A5 E8 08               562 	lda	sp,8(sp)
   02A7 E5                  563 	push	hl
   02A8 F8 02               564 	lda	hl,2(sp)
   02AA 73                  565 	ld	(hl),e
   02AB 23                  566 	inc	hl
   02AC 72                  567 	ld	(hl),d
   02AD D1                  568 	pop	de
   02AE 23                  569 	inc	hl
   02AF 73                  570 	ld	(hl),e
   02B0 23                  571 	inc	hl
   02B1 72                  572 	ld	(hl),d
   02B2 F8 02               573 	lda	hl,2(sp)
   02B4 2A                  574 	ld	a,(hl+)
   02B5 66                  575 	ld	h,(hl)
   02B6 6F                  576 	ld	l,a
   02B7 E5                  577 	push	hl
   02B8 F8 02               578 	lda	hl,2(sp)
   02BA 2A                  579 	ld	a,(hl+)
   02BB 66                  580 	ld	h,(hl)
   02BC 6F                  581 	ld	l,a
   02BD E5                  582 	push	hl
   02BE F8 0A               583 	lda	hl,10(sp)
   02C0 2A                  584 	ld	a,(hl+)
   02C1 66                  585 	ld	h,(hl)
   02C2 6F                  586 	ld	l,a
   02C3 E5                  587 	push	hl
   02C4 F8 0A               588 	lda	hl,10(sp)
   02C6 2A                  589 	ld	a,(hl+)
   02C7 66                  590 	ld	h,(hl)
   02C8 6F                  591 	ld	l,a
   02C9 E5                  592 	push	hl
   02CA CDr00s00            593 	call	___fssub
   02CD E8 08               594 	lda	sp,8(sp)
   02CF E5                  595 	push	hl
   02D0 F8 17               596 	lda	hl,23(sp)
   02D2 73                  597 	ld	(hl),e
   02D3 23                  598 	inc	hl
   02D4 72                  599 	ld	(hl),d
   02D5 D1                  600 	pop	de
   02D6 23                  601 	inc	hl
   02D7 73                  602 	ld	(hl),e
   02D8 23                  603 	inc	hl
   02D9 72                  604 	ld	(hl),d
                            605 ;../sincosf.c:80: g=f*f;
   02DA F8 17               606 	lda	hl,23(sp)
   02DC 2A                  607 	ld	a,(hl+)
   02DD 66                  608 	ld	h,(hl)
   02DE 6F                  609 	ld	l,a
   02DF E5                  610 	push	hl
   02E0 F8 17               611 	lda	hl,23(sp)
   02E2 2A                  612 	ld	a,(hl+)
   02E3 66                  613 	ld	h,(hl)
   02E4 6F                  614 	ld	l,a
   02E5 E5                  615 	push	hl
   02E6 F8 1B               616 	lda	hl,27(sp)
   02E8 2A                  617 	ld	a,(hl+)
   02E9 66                  618 	ld	h,(hl)
   02EA 6F                  619 	ld	l,a
   02EB E5                  620 	push	hl
   02EC F8 1B               621 	lda	hl,27(sp)
   02EE 2A                  622 	ld	a,(hl+)
   02EF 66                  623 	ld	h,(hl)
   02F0 6F                  624 	ld	l,a
   02F1 E5                  625 	push	hl
   02F2 CDr00s00            626 	call	___fsmul
   02F5 E8 08               627 	lda	sp,8(sp)
   02F7 E5                  628 	push	hl
   02F8 F8 02               629 	lda	hl,2(sp)
   02FA 73                  630 	ld	(hl),e
   02FB 23                  631 	inc	hl
   02FC 72                  632 	ld	(hl),d
   02FD D1                  633 	pop	de
   02FE 23                  634 	inc	hl
   02FF 73                  635 	ld	(hl),e
   0300 23                  636 	inc	hl
   0301 72                  637 	ld	(hl),d
   0302 F8 00               638 	lda	hl,0(sp)
   0304 54                  639 	ld	d,h
   0305 5D                  640 	ld	e,l
   0306 F8 0D               641 	lda	hl,13(sp)
   0308 1A                  642 	ld	a,(de)
   0309 22                  643 	ld	(hl+),a
   030A 13                  644 	inc	de
   030B 1A                  645 	ld	a,(de)
   030C 22                  646 	ld	(hl+),a
   030D 13                  647 	inc	de
   030E 1A                  648 	ld	a,(de)
   030F 22                  649 	ld	(hl+),a
   0310 13                  650 	inc	de
   0311 1A                  651 	ld	a,(de)
   0312 77                  652 	ld	(hl),a
                            653 ;../sincosf.c:81: if(g>EPS2) //Used to be if(fabsf(f)>EPS)
   0313 21 7F 33            654 	ld	hl,#0x337F
   0316 E5                  655 	push	hl
   0317 21 F3 FF            656 	ld	hl,#0xFFF3
   031A E5                  657 	push	hl
   031B F8 13               658 	lda	hl,19(sp)
   031D 2A                  659 	ld	a,(hl+)
   031E 66                  660 	ld	h,(hl)
   031F 6F                  661 	ld	l,a
   0320 E5                  662 	push	hl
   0321 F8 13               663 	lda	hl,19(sp)
   0323 2A                  664 	ld	a,(hl+)
   0324 66                  665 	ld	h,(hl)
   0325 6F                  666 	ld	l,a
   0326 E5                  667 	push	hl
   0327 CDr00s00            668 	call	___fsgt
   032A E8 08               669 	lda	sp,8(sp)
   032C 4B                  670 	ld	c,e
   032D AF                  671 	xor	a,a
   032E B1                  672 	or	a,c
   032F CArACs04            673 	jp	Z,00114$
                            674 ;../sincosf.c:83: r=(((r4*g+r3)*g+r2)*g+r1)*g;
   0332 F8 0F               675 	lda	hl,15(sp)
   0334 2A                  676 	ld	a,(hl+)
   0335 66                  677 	ld	h,(hl)
   0336 6F                  678 	ld	l,a
   0337 E5                  679 	push	hl
   0338 F8 0F               680 	lda	hl,15(sp)
   033A 2A                  681 	ld	a,(hl+)
   033B 66                  682 	ld	h,(hl)
   033C 6F                  683 	ld	l,a
   033D E5                  684 	push	hl
   033E 21 2E 36            685 	ld	hl,#0x362E
   0341 E5                  686 	push	hl
   0342 21 5B 9C            687 	ld	hl,#0x9C5B
   0345 E5                  688 	push	hl
   0346 CDr00s00            689 	call	___fsmul
   0349 E8 08               690 	lda	sp,8(sp)
   034B E5                  691 	push	hl
   034C F8 02               692 	lda	hl,2(sp)
   034E 73                  693 	ld	(hl),e
   034F 23                  694 	inc	hl
   0350 72                  695 	ld	(hl),d
   0351 D1                  696 	pop	de
   0352 23                  697 	inc	hl
   0353 73                  698 	ld	(hl),e
   0354 23                  699 	inc	hl
   0355 72                  700 	ld	(hl),d
   0356 21 4F B9            701 	ld	hl,#0xB94F
   0359 E5                  702 	push	hl
   035A 21 22 B2            703 	ld	hl,#0xB222
   035D E5                  704 	push	hl
   035E F8 06               705 	lda	hl,6(sp)
   0360 2A                  706 	ld	a,(hl+)
   0361 66                  707 	ld	h,(hl)
   0362 6F                  708 	ld	l,a
   0363 E5                  709 	push	hl
   0364 F8 06               710 	lda	hl,6(sp)
   0366 2A                  711 	ld	a,(hl+)
   0367 66                  712 	ld	h,(hl)
   0368 6F                  713 	ld	l,a
   0369 E5                  714 	push	hl
   036A CDr00s00            715 	call	___fsadd
   036D E8 08               716 	lda	sp,8(sp)
   036F E5                  717 	push	hl
   0370 F8 02               718 	lda	hl,2(sp)
   0372 73                  719 	ld	(hl),e
   0373 23                  720 	inc	hl
   0374 72                  721 	ld	(hl),d
   0375 D1                  722 	pop	de
   0376 23                  723 	inc	hl
   0377 73                  724 	ld	(hl),e
   0378 23                  725 	inc	hl
   0379 72                  726 	ld	(hl),d
   037A F8 0F               727 	lda	hl,15(sp)
   037C 2A                  728 	ld	a,(hl+)
   037D 66                  729 	ld	h,(hl)
   037E 6F                  730 	ld	l,a
   037F E5                  731 	push	hl
   0380 F8 0F               732 	lda	hl,15(sp)
   0382 2A                  733 	ld	a,(hl+)
   0383 66                  734 	ld	h,(hl)
   0384 6F                  735 	ld	l,a
   0385 E5                  736 	push	hl
   0386 F8 06               737 	lda	hl,6(sp)
   0388 2A                  738 	ld	a,(hl+)
   0389 66                  739 	ld	h,(hl)
   038A 6F                  740 	ld	l,a
   038B E5                  741 	push	hl
   038C F8 06               742 	lda	hl,6(sp)
   038E 2A                  743 	ld	a,(hl+)
   038F 66                  744 	ld	h,(hl)
   0390 6F                  745 	ld	l,a
   0391 E5                  746 	push	hl
   0392 CDr00s00            747 	call	___fsmul
   0395 E8 08               748 	lda	sp,8(sp)
   0397 E5                  749 	push	hl
   0398 F8 02               750 	lda	hl,2(sp)
   039A 73                  751 	ld	(hl),e
   039B 23                  752 	inc	hl
   039C 72                  753 	ld	(hl),d
   039D D1                  754 	pop	de
   039E 23                  755 	inc	hl
   039F 73                  756 	ld	(hl),e
   03A0 23                  757 	inc	hl
   03A1 72                  758 	ld	(hl),d
   03A2 21 08 3C            759 	ld	hl,#0x3C08
   03A5 E5                  760 	push	hl
   03A6 21 3E 87            761 	ld	hl,#0x873E
   03A9 E5                  762 	push	hl
   03AA F8 06               763 	lda	hl,6(sp)
   03AC 2A                  764 	ld	a,(hl+)
   03AD 66                  765 	ld	h,(hl)
   03AE 6F                  766 	ld	l,a
   03AF E5                  767 	push	hl
   03B0 F8 06               768 	lda	hl,6(sp)
   03B2 2A                  769 	ld	a,(hl+)
   03B3 66                  770 	ld	h,(hl)
   03B4 6F                  771 	ld	l,a
   03B5 E5                  772 	push	hl
   03B6 CDr00s00            773 	call	___fsadd
   03B9 E8 08               774 	lda	sp,8(sp)
   03BB E5                  775 	push	hl
   03BC F8 02               776 	lda	hl,2(sp)
   03BE 73                  777 	ld	(hl),e
   03BF 23                  778 	inc	hl
   03C0 72                  779 	ld	(hl),d
   03C1 D1                  780 	pop	de
   03C2 23                  781 	inc	hl
   03C3 73                  782 	ld	(hl),e
   03C4 23                  783 	inc	hl
   03C5 72                  784 	ld	(hl),d
   03C6 F8 0F               785 	lda	hl,15(sp)
   03C8 2A                  786 	ld	a,(hl+)
   03C9 66                  787 	ld	h,(hl)
   03CA 6F                  788 	ld	l,a
   03CB E5                  789 	push	hl
   03CC F8 0F               790 	lda	hl,15(sp)
   03CE 2A                  791 	ld	a,(hl+)
   03CF 66                  792 	ld	h,(hl)
   03D0 6F                  793 	ld	l,a
   03D1 E5                  794 	push	hl
   03D2 F8 06               795 	lda	hl,6(sp)
   03D4 2A                  796 	ld	a,(hl+)
   03D5 66                  797 	ld	h,(hl)
   03D6 6F                  798 	ld	l,a
   03D7 E5                  799 	push	hl
   03D8 F8 06               800 	lda	hl,6(sp)
   03DA 2A                  801 	ld	a,(hl+)
   03DB 66                  802 	ld	h,(hl)
   03DC 6F                  803 	ld	l,a
   03DD E5                  804 	push	hl
   03DE CDr00s00            805 	call	___fsmul
   03E1 E8 08               806 	lda	sp,8(sp)
   03E3 E5                  807 	push	hl
   03E4 F8 02               808 	lda	hl,2(sp)
   03E6 73                  809 	ld	(hl),e
   03E7 23                  810 	inc	hl
   03E8 72                  811 	ld	(hl),d
   03E9 D1                  812 	pop	de
   03EA 23                  813 	inc	hl
   03EB 73                  814 	ld	(hl),e
   03EC 23                  815 	inc	hl
   03ED 72                  816 	ld	(hl),d
   03EE 21 2A BE            817 	ld	hl,#0xBE2A
   03F1 E5                  818 	push	hl
   03F2 21 A4 AA            819 	ld	hl,#0xAAA4
   03F5 E5                  820 	push	hl
   03F6 F8 06               821 	lda	hl,6(sp)
   03F8 2A                  822 	ld	a,(hl+)
   03F9 66                  823 	ld	h,(hl)
   03FA 6F                  824 	ld	l,a
   03FB E5                  825 	push	hl
   03FC F8 06               826 	lda	hl,6(sp)
   03FE 2A                  827 	ld	a,(hl+)
   03FF 66                  828 	ld	h,(hl)
   0400 6F                  829 	ld	l,a
   0401 E5                  830 	push	hl
   0402 CDr00s00            831 	call	___fsadd
   0405 E8 08               832 	lda	sp,8(sp)
   0407 E5                  833 	push	hl
   0408 F8 02               834 	lda	hl,2(sp)
   040A 73                  835 	ld	(hl),e
   040B 23                  836 	inc	hl
   040C 72                  837 	ld	(hl),d
   040D D1                  838 	pop	de
   040E 23                  839 	inc	hl
   040F 73                  840 	ld	(hl),e
   0410 23                  841 	inc	hl
   0411 72                  842 	ld	(hl),d
   0412 F8 0F               843 	lda	hl,15(sp)
   0414 2A                  844 	ld	a,(hl+)
   0415 66                  845 	ld	h,(hl)
   0416 6F                  846 	ld	l,a
   0417 E5                  847 	push	hl
   0418 F8 0F               848 	lda	hl,15(sp)
   041A 2A                  849 	ld	a,(hl+)
   041B 66                  850 	ld	h,(hl)
   041C 6F                  851 	ld	l,a
   041D E5                  852 	push	hl
   041E F8 06               853 	lda	hl,6(sp)
   0420 2A                  854 	ld	a,(hl+)
   0421 66                  855 	ld	h,(hl)
   0422 6F                  856 	ld	l,a
   0423 E5                  857 	push	hl
   0424 F8 06               858 	lda	hl,6(sp)
   0426 2A                  859 	ld	a,(hl+)
   0427 66                  860 	ld	h,(hl)
   0428 6F                  861 	ld	l,a
   0429 E5                  862 	push	hl
   042A CDr00s00            863 	call	___fsmul
   042D E8 08               864 	lda	sp,8(sp)
   042F E5                  865 	push	hl
   0430 F8 02               866 	lda	hl,2(sp)
   0432 73                  867 	ld	(hl),e
   0433 23                  868 	inc	hl
   0434 72                  869 	ld	(hl),d
   0435 D1                  870 	pop	de
   0436 23                  871 	inc	hl
   0437 73                  872 	ld	(hl),e
   0438 23                  873 	inc	hl
   0439 72                  874 	ld	(hl),d
   043A F8 00               875 	lda	hl,0(sp)
   043C 54                  876 	ld	d,h
   043D 5D                  877 	ld	e,l
   043E F8 11               878 	lda	hl,17(sp)
   0440 1A                  879 	ld	a,(de)
   0441 22                  880 	ld	(hl+),a
   0442 13                  881 	inc	de
   0443 1A                  882 	ld	a,(de)
   0444 22                  883 	ld	(hl+),a
   0445 13                  884 	inc	de
   0446 1A                  885 	ld	a,(de)
   0447 22                  886 	ld	(hl+),a
   0448 13                  887 	inc	de
   0449 1A                  888 	ld	a,(de)
   044A 77                  889 	ld	(hl),a
                            890 ;../sincosf.c:84: f+=f*r;
   044B F8 13               891 	lda	hl,19(sp)
   044D 2A                  892 	ld	a,(hl+)
   044E 66                  893 	ld	h,(hl)
   044F 6F                  894 	ld	l,a
   0450 E5                  895 	push	hl
   0451 F8 13               896 	lda	hl,19(sp)
   0453 2A                  897 	ld	a,(hl+)
   0454 66                  898 	ld	h,(hl)
   0455 6F                  899 	ld	l,a
   0456 E5                  900 	push	hl
   0457 F8 1B               901 	lda	hl,27(sp)
   0459 2A                  902 	ld	a,(hl+)
   045A 66                  903 	ld	h,(hl)
   045B 6F                  904 	ld	l,a
   045C E5                  905 	push	hl
   045D F8 1B               906 	lda	hl,27(sp)
   045F 2A                  907 	ld	a,(hl+)
   0460 66                  908 	ld	h,(hl)
   0461 6F                  909 	ld	l,a
   0462 E5                  910 	push	hl
   0463 CDr00s00            911 	call	___fsmul
   0466 E8 08               912 	lda	sp,8(sp)
   0468 E5                  913 	push	hl
   0469 F8 02               914 	lda	hl,2(sp)
   046B 73                  915 	ld	(hl),e
   046C 23                  916 	inc	hl
   046D 72                  917 	ld	(hl),d
   046E D1                  918 	pop	de
   046F 23                  919 	inc	hl
   0470 73                  920 	ld	(hl),e
   0471 23                  921 	inc	hl
   0472 72                  922 	ld	(hl),d
   0473 F8 02               923 	lda	hl,2(sp)
   0475 2A                  924 	ld	a,(hl+)
   0476 66                  925 	ld	h,(hl)
   0477 6F                  926 	ld	l,a
   0478 E5                  927 	push	hl
   0479 F8 02               928 	lda	hl,2(sp)
   047B 2A                  929 	ld	a,(hl+)
   047C 66                  930 	ld	h,(hl)
   047D 6F                  931 	ld	l,a
   047E E5                  932 	push	hl
   047F F8 1B               933 	lda	hl,27(sp)
   0481 2A                  934 	ld	a,(hl+)
   0482 66                  935 	ld	h,(hl)
   0483 6F                  936 	ld	l,a
   0484 E5                  937 	push	hl
   0485 F8 1B               938 	lda	hl,27(sp)
   0487 2A                  939 	ld	a,(hl+)
   0488 66                  940 	ld	h,(hl)
   0489 6F                  941 	ld	l,a
   048A E5                  942 	push	hl
   048B CDr00s00            943 	call	___fsadd
   048E E8 08               944 	lda	sp,8(sp)
   0490 E5                  945 	push	hl
   0491 F8 02               946 	lda	hl,2(sp)
   0493 73                  947 	ld	(hl),e
   0494 23                  948 	inc	hl
   0495 72                  949 	ld	(hl),d
   0496 D1                  950 	pop	de
   0497 23                  951 	inc	hl
   0498 73                  952 	ld	(hl),e
   0499 23                  953 	inc	hl
   049A 72                  954 	ld	(hl),d
   049B F8 00               955 	lda	hl,0(sp)
   049D 54                  956 	ld	d,h
   049E 5D                  957 	ld	e,l
   049F F8 15               958 	lda	hl,21(sp)
   04A1 1A                  959 	ld	a,(de)
   04A2 22                  960 	ld	(hl+),a
   04A3 13                  961 	inc	de
   04A4 1A                  962 	ld	a,(de)
   04A5 22                  963 	ld	(hl+),a
   04A6 13                  964 	inc	de
   04A7 1A                  965 	ld	a,(de)
   04A8 22                  966 	ld	(hl+),a
   04A9 13                  967 	inc	de
   04AA 1A                  968 	ld	a,(de)
   04AB 77                  969 	ld	(hl),a
   04AC                     970 00114$:
                            971 ;../sincosf.c:86: return (sign?-f:f);
   04AC AF                  972 	xor	a,a
   04AD F8 08               973 	lda	hl,8(sp)
   04AF B6                  974 	or	a,(hl)
   04B0 CArD0s04            975 	jp	Z,00117$
   04B3 F8 18               976 	lda	hl,24(sp)
   04B5 7E                  977 	ld	a,(hl)
   04B6 EE 80               978 	xor	a,#0x80
   04B8 F8 03               979 	lda	hl,3(sp)
   04BA 77                  980 	ld	(hl),a
   04BB F8 15               981 	lda	hl,21(sp)
   04BD 7E                  982 	ld	a,(hl)
   04BE F8 00               983 	lda	hl,0(sp)
   04C0 77                  984 	ld	(hl),a
   04C1 F8 16               985 	lda	hl,22(sp)
   04C3 7E                  986 	ld	a,(hl)
   04C4 F8 01               987 	lda	hl,1(sp)
   04C6 77                  988 	ld	(hl),a
   04C7 F8 17               989 	lda	hl,23(sp)
   04C9 7E                  990 	ld	a,(hl)
   04CA F8 02               991 	lda	hl,2(sp)
   04CC 77                  992 	ld	(hl),a
   04CD C3rE1s04            993 	jp	00118$
   04D0                     994 00117$:
   04D0 F8 15               995 	lda	hl,21(sp)
   04D2 54                  996 	ld	d,h
   04D3 5D                  997 	ld	e,l
   04D4 F8 00               998 	lda	hl,0(sp)
   04D6 1A                  999 	ld	a,(de)
   04D7 22                 1000 	ld	(hl+),a
   04D8 13                 1001 	inc	de
   04D9 1A                 1002 	ld	a,(de)
   04DA 22                 1003 	ld	(hl+),a
   04DB 13                 1004 	inc	de
   04DC 1A                 1005 	ld	a,(de)
   04DD 22                 1006 	ld	(hl+),a
   04DE 13                 1007 	inc	de
   04DF 1A                 1008 	ld	a,(de)
   04E0 77                 1009 	ld	(hl),a
   04E1                    1010 00118$:
   04E1 F8 01              1011 	lda	hl,1(sp)
   04E3 2B                 1012 	dec	hl
   04E4 5E                 1013 	ld	e,(hl)
   04E5 23                 1014 	inc	hl
   04E6 56                 1015 	ld	d,(hl)
   04E7 23                 1016 	inc	hl
   04E8 2A                 1017 	ld	a,(hl+)
   04E9 66                 1018 	ld	h,(hl)
   04EA 6F                 1019 	ld	l,a
   04EB                    1020 00115$:
   04EB E8 1D              1021 	lda	sp,29(sp)
   04ED C9                 1022 	ret
   04EE                    1023 _sincosf_end::
                           1024 	.area _CODE
                           1025 	.area _CABS
