                              1 ;--------------------------------------------------------
                              2 ; File Created by SDCC : free open source ANSI-C Compiler
                              3 ; Version 2.9.4 #5595 (Oct 23 2013) (Mac OS X ppc)
                              4 ; This file was generated Wed Oct 23 12:26:11 2013
                              5 ;--------------------------------------------------------
                              6 	.module tancotf
                              7 	.optsdcc -mgbz80
                              8 	
                              9 ;--------------------------------------------------------
                             10 ; Public variables in this module
                             11 ;--------------------------------------------------------
                             12 	.globl _tancotf
                             13 ;--------------------------------------------------------
                             14 ;  ram data
                             15 ;--------------------------------------------------------
                             16 	.area _DATA
                             17 ;--------------------------------------------------------
                             18 ; overlayable items in  ram 
                             19 ;--------------------------------------------------------
                             20 	.area _OVERLAY
                             21 ;--------------------------------------------------------
                             22 ; external initialized ram data
                             23 ;--------------------------------------------------------
                             24 ;--------------------------------------------------------
                             25 ; global & static initialisations
                             26 ;--------------------------------------------------------
                             27 	.area _HOME
                             28 	.area _GSINIT
                             29 	.area _GSFINAL
                             30 	.area _GSINIT
                             31 ;--------------------------------------------------------
                             32 ; Home
                             33 ;--------------------------------------------------------
                             34 	.area _HOME
                             35 	.area _HOME
                             36 ;--------------------------------------------------------
                             37 ; code
                             38 ;--------------------------------------------------------
                             39 	.area _CODE
                             40 ;../tancotf.c:42: float tancotf(const float x, const int iscotan)
                             41 ;	---------------------------------
                             42 ; Function tancotf
                             43 ; ---------------------------------
   0000                      44 _tancotf_start::
   0000                      45 _tancotf:
   0000 E8 E2                46 	lda	sp,-30(sp)
                             47 ;../tancotf.c:47: if (fabsf(x) > YMAX)
   0002 F8 22                48 	lda	hl,34(sp)
   0004 2A                   49 	ld	a,(hl+)
   0005 66                   50 	ld	h,(hl)
   0006 6F                   51 	ld	l,a
   0007 E5                   52 	push	hl
   0008 F8 22                53 	lda	hl,34(sp)
   000A 2A                   54 	ld	a,(hl+)
   000B 66                   55 	ld	h,(hl)
   000C 6F                   56 	ld	l,a
   000D E5                   57 	push	hl
   000E CDr00s00             58 	call	_fabsf
   0011 E8 04                59 	lda	sp,4(sp)
   0013 E5                   60 	push	hl
   0014 F8 06                61 	lda	hl,6(sp)
   0016 73                   62 	ld	(hl),e
   0017 23                   63 	inc	hl
   0018 72                   64 	ld	(hl),d
   0019 D1                   65 	pop	de
   001A 23                   66 	inc	hl
   001B 73                   67 	ld	(hl),e
   001C 23                   68 	inc	hl
   001D 72                   69 	ld	(hl),d
   001E 21 C9 45             70 	ld	hl,#0x45C9
   0021 E5                   71 	push	hl
   0022 21 00 08             72 	ld	hl,#0x0800
   0025 E5                   73 	push	hl
   0026 F8 0A                74 	lda	hl,10(sp)
   0028 2A                   75 	ld	a,(hl+)
   0029 66                   76 	ld	h,(hl)
   002A 6F                   77 	ld	l,a
   002B E5                   78 	push	hl
   002C F8 0A                79 	lda	hl,10(sp)
   002E 2A                   80 	ld	a,(hl+)
   002F 66                   81 	ld	h,(hl)
   0030 6F                   82 	ld	l,a
   0031 E5                   83 	push	hl
   0032 CDr00s00             84 	call	___fsgt
   0035 E8 08                85 	lda	sp,8(sp)
   0037 4B                   86 	ld	c,e
   0038 AF                   87 	xor	a,a
   0039 B1                   88 	or	a,c
   003A CAr50s00             89 	jp	Z,00102$
                             90 ;../tancotf.c:49: errno = ERANGE;
   003D 21r00s00             91 	ld	hl,#_errno
   0040 36 22                92 	ld	(hl),#0x22
   0042 21r01s00             93 	ld	hl,#_errno + 1
   0045 36 00                94 	ld	(hl),#0x00
                             95 ;../tancotf.c:50: return 0.0;
   0047 11 00 00             96 	ld	de,#0x0000
   004A 21 00 00             97 	ld	hl,#0x0000
   004D C3rDCs04             98 	jp	00115$
   0050                      99 00102$:
                            100 ;../tancotf.c:54: n=(x*TWO_O_PI+(x>0.0?0.5:-0.5)); /*works for +-x*/
   0050 F8 22               101 	lda	hl,34(sp)
   0052 2A                  102 	ld	a,(hl+)
   0053 66                  103 	ld	h,(hl)
   0054 6F                  104 	ld	l,a
   0055 E5                  105 	push	hl
   0056 F8 22               106 	lda	hl,34(sp)
   0058 2A                  107 	ld	a,(hl+)
   0059 66                  108 	ld	h,(hl)
   005A 6F                  109 	ld	l,a
   005B E5                  110 	push	hl
   005C 21 22 3F            111 	ld	hl,#0x3F22
   005F E5                  112 	push	hl
   0060 21 83 F9            113 	ld	hl,#0xF983
   0063 E5                  114 	push	hl
   0064 CDr00s00            115 	call	___fsmul
   0067 E8 08               116 	lda	sp,8(sp)
   0069 E5                  117 	push	hl
   006A F8 06               118 	lda	hl,6(sp)
   006C 73                  119 	ld	(hl),e
   006D 23                  120 	inc	hl
   006E 72                  121 	ld	(hl),d
   006F D1                  122 	pop	de
   0070 23                  123 	inc	hl
   0071 73                  124 	ld	(hl),e
   0072 23                  125 	inc	hl
   0073 72                  126 	ld	(hl),d
   0074 21 00 00            127 	ld	hl,#0x0000
   0077 E5                  128 	push	hl
   0078 21 00 00            129 	ld	hl,#0x0000
   007B E5                  130 	push	hl
   007C F8 26               131 	lda	hl,38(sp)
   007E 2A                  132 	ld	a,(hl+)
   007F 66                  133 	ld	h,(hl)
   0080 6F                  134 	ld	l,a
   0081 E5                  135 	push	hl
   0082 F8 26               136 	lda	hl,38(sp)
   0084 2A                  137 	ld	a,(hl+)
   0085 66                  138 	ld	h,(hl)
   0086 6F                  139 	ld	l,a
   0087 E5                  140 	push	hl
   0088 CDr00s00            141 	call	___fsgt
   008B E8 08               142 	lda	sp,8(sp)
   008D 4B                  143 	ld	c,e
   008E AF                  144 	xor	a,a
   008F B1                  145 	or	a,c
   0090 CArA3s00            146 	jp	Z,00117$
   0093 F8 00               147 	lda	hl,0(sp)
   0095 36 00               148 	ld	(hl),#0x00
   0097 23                  149 	inc	hl
   0098 36 00               150 	ld	(hl),#0x00
   009A 23                  151 	inc	hl
   009B 36 00               152 	ld	(hl),#0x00
   009D 23                  153 	inc	hl
   009E 36 3F               154 	ld	(hl),#0x3F
   00A0 C3rB0s00            155 	jp	00118$
   00A3                     156 00117$:
   00A3 F8 00               157 	lda	hl,0(sp)
   00A5 36 00               158 	ld	(hl),#0x00
   00A7 23                  159 	inc	hl
   00A8 36 00               160 	ld	(hl),#0x00
   00AA 23                  161 	inc	hl
   00AB 36 00               162 	ld	(hl),#0x00
   00AD 23                  163 	inc	hl
   00AE 36 BF               164 	ld	(hl),#0xBF
   00B0                     165 00118$:
   00B0 F8 02               166 	lda	hl,2(sp)
   00B2 2A                  167 	ld	a,(hl+)
   00B3 66                  168 	ld	h,(hl)
   00B4 6F                  169 	ld	l,a
   00B5 E5                  170 	push	hl
   00B6 F8 02               171 	lda	hl,2(sp)
   00B8 2A                  172 	ld	a,(hl+)
   00B9 66                  173 	ld	h,(hl)
   00BA 6F                  174 	ld	l,a
   00BB E5                  175 	push	hl
   00BC F8 0A               176 	lda	hl,10(sp)
   00BE 2A                  177 	ld	a,(hl+)
   00BF 66                  178 	ld	h,(hl)
   00C0 6F                  179 	ld	l,a
   00C1 E5                  180 	push	hl
   00C2 F8 0A               181 	lda	hl,10(sp)
   00C4 2A                  182 	ld	a,(hl+)
   00C5 66                  183 	ld	h,(hl)
   00C6 6F                  184 	ld	l,a
   00C7 E5                  185 	push	hl
   00C8 CDr00s00            186 	call	___fsadd
   00CB E8 08               187 	lda	sp,8(sp)
   00CD E5                  188 	push	hl
   00CE F8 02               189 	lda	hl,2(sp)
   00D0 73                  190 	ld	(hl),e
   00D1 23                  191 	inc	hl
   00D2 72                  192 	ld	(hl),d
   00D3 D1                  193 	pop	de
   00D4 23                  194 	inc	hl
   00D5 73                  195 	ld	(hl),e
   00D6 23                  196 	inc	hl
   00D7 72                  197 	ld	(hl),d
   00D8 F8 02               198 	lda	hl,2(sp)
   00DA 2A                  199 	ld	a,(hl+)
   00DB 66                  200 	ld	h,(hl)
   00DC 6F                  201 	ld	l,a
   00DD E5                  202 	push	hl
   00DE F8 02               203 	lda	hl,2(sp)
   00E0 2A                  204 	ld	a,(hl+)
   00E1 66                  205 	ld	h,(hl)
   00E2 6F                  206 	ld	l,a
   00E3 E5                  207 	push	hl
   00E4 CDr00s00            208 	call	___fs2sint
   00E7 E8 04               209 	lda	sp,4(sp)
   00E9 42                  210 	ld	b,d
   00EA 4B                  211 	ld	c,e
   00EB F8 08               212 	lda	hl,8(sp)
   00ED 71                  213 	ld	(hl),c
   00EE 23                  214 	inc	hl
   00EF 70                  215 	ld	(hl),b
                            216 ;../tancotf.c:55: xn=n;
   00F0 2B                  217 	dec	hl
   00F1 2A                  218 	ld	a,(hl+)
   00F2 66                  219 	ld	h,(hl)
   00F3 6F                  220 	ld	l,a
   00F4 E5                  221 	push	hl
   00F5 CDr00s00            222 	call	___sint2fs
   00F8 E8 02               223 	lda	sp,2(sp)
   00FA E5                  224 	push	hl
   00FB F8 14               225 	lda	hl,20(sp)
   00FD 73                  226 	ld	(hl),e
   00FE 23                  227 	inc	hl
   00FF 72                  228 	ld	(hl),d
   0100 D1                  229 	pop	de
   0101 23                  230 	inc	hl
   0102 73                  231 	ld	(hl),e
   0103 23                  232 	inc	hl
   0104 72                  233 	ld	(hl),d
                            234 ;../tancotf.c:57: xnum=(int)x;
   0105 F8 22               235 	lda	hl,34(sp)
   0107 2A                  236 	ld	a,(hl+)
   0108 66                  237 	ld	h,(hl)
   0109 6F                  238 	ld	l,a
   010A E5                  239 	push	hl
   010B F8 22               240 	lda	hl,34(sp)
   010D 2A                  241 	ld	a,(hl+)
   010E 66                  242 	ld	h,(hl)
   010F 6F                  243 	ld	l,a
   0110 E5                  244 	push	hl
   0111 CDr00s00            245 	call	___fs2sint
   0114 E8 04               246 	lda	sp,4(sp)
   0116 42                  247 	ld	b,d
   0117 4B                  248 	ld	c,e
   0118 C5                  249 	push	bc
   0119 CDr00s00            250 	call	___sint2fs
   011C E8 02               251 	lda	sp,2(sp)
   011E E5                  252 	push	hl
   011F F8 10               253 	lda	hl,16(sp)
   0121 73                  254 	ld	(hl),e
   0122 23                  255 	inc	hl
   0123 72                  256 	ld	(hl),d
   0124 D1                  257 	pop	de
   0125 23                  258 	inc	hl
   0126 73                  259 	ld	(hl),e
   0127 23                  260 	inc	hl
   0128 72                  261 	ld	(hl),d
                            262 ;../tancotf.c:58: xden=x-xnum;
   0129 F8 10               263 	lda	hl,16(sp)
   012B 2A                  264 	ld	a,(hl+)
   012C 66                  265 	ld	h,(hl)
   012D 6F                  266 	ld	l,a
   012E E5                  267 	push	hl
   012F F8 10               268 	lda	hl,16(sp)
   0131 2A                  269 	ld	a,(hl+)
   0132 66                  270 	ld	h,(hl)
   0133 6F                  271 	ld	l,a
   0134 E5                  272 	push	hl
   0135 F8 26               273 	lda	hl,38(sp)
   0137 2A                  274 	ld	a,(hl+)
   0138 66                  275 	ld	h,(hl)
   0139 6F                  276 	ld	l,a
   013A E5                  277 	push	hl
   013B F8 26               278 	lda	hl,38(sp)
   013D 2A                  279 	ld	a,(hl+)
   013E 66                  280 	ld	h,(hl)
   013F 6F                  281 	ld	l,a
   0140 E5                  282 	push	hl
   0141 CDr00s00            283 	call	___fssub
   0144 E8 08               284 	lda	sp,8(sp)
   0146 E5                  285 	push	hl
   0147 F8 0C               286 	lda	hl,12(sp)
   0149 73                  287 	ld	(hl),e
   014A 23                  288 	inc	hl
   014B 72                  289 	ld	(hl),d
   014C D1                  290 	pop	de
   014D 23                  291 	inc	hl
   014E 73                  292 	ld	(hl),e
   014F 23                  293 	inc	hl
   0150 72                  294 	ld	(hl),d
                            295 ;../tancotf.c:59: f=((xnum-xn*C1)+xden)-xn*C2;
   0151 F8 14               296 	lda	hl,20(sp)
   0153 2A                  297 	ld	a,(hl+)
   0154 66                  298 	ld	h,(hl)
   0155 6F                  299 	ld	l,a
   0156 E5                  300 	push	hl
   0157 F8 14               301 	lda	hl,20(sp)
   0159 2A                  302 	ld	a,(hl+)
   015A 66                  303 	ld	h,(hl)
   015B 6F                  304 	ld	l,a
   015C E5                  305 	push	hl
   015D 21 C9 3F            306 	ld	hl,#0x3FC9
   0160 E5                  307 	push	hl
   0161 21 00 00            308 	ld	hl,#0x0000
   0164 E5                  309 	push	hl
   0165 CDr00s00            310 	call	___fsmul
   0168 E8 08               311 	lda	sp,8(sp)
   016A E5                  312 	push	hl
   016B F8 02               313 	lda	hl,2(sp)
   016D 73                  314 	ld	(hl),e
   016E 23                  315 	inc	hl
   016F 72                  316 	ld	(hl),d
   0170 D1                  317 	pop	de
   0171 23                  318 	inc	hl
   0172 73                  319 	ld	(hl),e
   0173 23                  320 	inc	hl
   0174 72                  321 	ld	(hl),d
   0175 F8 02               322 	lda	hl,2(sp)
   0177 2A                  323 	ld	a,(hl+)
   0178 66                  324 	ld	h,(hl)
   0179 6F                  325 	ld	l,a
   017A E5                  326 	push	hl
   017B F8 02               327 	lda	hl,2(sp)
   017D 2A                  328 	ld	a,(hl+)
   017E 66                  329 	ld	h,(hl)
   017F 6F                  330 	ld	l,a
   0180 E5                  331 	push	hl
   0181 F8 14               332 	lda	hl,20(sp)
   0183 2A                  333 	ld	a,(hl+)
   0184 66                  334 	ld	h,(hl)
   0185 6F                  335 	ld	l,a
   0186 E5                  336 	push	hl
   0187 F8 14               337 	lda	hl,20(sp)
   0189 2A                  338 	ld	a,(hl+)
   018A 66                  339 	ld	h,(hl)
   018B 6F                  340 	ld	l,a
   018C E5                  341 	push	hl
   018D CDr00s00            342 	call	___fssub
   0190 E8 08               343 	lda	sp,8(sp)
   0192 E5                  344 	push	hl
   0193 F8 02               345 	lda	hl,2(sp)
   0195 73                  346 	ld	(hl),e
   0196 23                  347 	inc	hl
   0197 72                  348 	ld	(hl),d
   0198 D1                  349 	pop	de
   0199 23                  350 	inc	hl
   019A 73                  351 	ld	(hl),e
   019B 23                  352 	inc	hl
   019C 72                  353 	ld	(hl),d
   019D F8 0C               354 	lda	hl,12(sp)
   019F 2A                  355 	ld	a,(hl+)
   01A0 66                  356 	ld	h,(hl)
   01A1 6F                  357 	ld	l,a
   01A2 E5                  358 	push	hl
   01A3 F8 0C               359 	lda	hl,12(sp)
   01A5 2A                  360 	ld	a,(hl+)
   01A6 66                  361 	ld	h,(hl)
   01A7 6F                  362 	ld	l,a
   01A8 E5                  363 	push	hl
   01A9 F8 06               364 	lda	hl,6(sp)
   01AB 2A                  365 	ld	a,(hl+)
   01AC 66                  366 	ld	h,(hl)
   01AD 6F                  367 	ld	l,a
   01AE E5                  368 	push	hl
   01AF F8 06               369 	lda	hl,6(sp)
   01B1 2A                  370 	ld	a,(hl+)
   01B2 66                  371 	ld	h,(hl)
   01B3 6F                  372 	ld	l,a
   01B4 E5                  373 	push	hl
   01B5 CDr00s00            374 	call	___fsadd
   01B8 E8 08               375 	lda	sp,8(sp)
   01BA E5                  376 	push	hl
   01BB F8 02               377 	lda	hl,2(sp)
   01BD 73                  378 	ld	(hl),e
   01BE 23                  379 	inc	hl
   01BF 72                  380 	ld	(hl),d
   01C0 D1                  381 	pop	de
   01C1 23                  382 	inc	hl
   01C2 73                  383 	ld	(hl),e
   01C3 23                  384 	inc	hl
   01C4 72                  385 	ld	(hl),d
   01C5 F8 14               386 	lda	hl,20(sp)
   01C7 2A                  387 	ld	a,(hl+)
   01C8 66                  388 	ld	h,(hl)
   01C9 6F                  389 	ld	l,a
   01CA E5                  390 	push	hl
   01CB F8 14               391 	lda	hl,20(sp)
   01CD 2A                  392 	ld	a,(hl+)
   01CE 66                  393 	ld	h,(hl)
   01CF 6F                  394 	ld	l,a
   01D0 E5                  395 	push	hl
   01D1 21 FD 39            396 	ld	hl,#0x39FD
   01D4 E5                  397 	push	hl
   01D5 21 22 AA            398 	ld	hl,#0xAA22
   01D8 E5                  399 	push	hl
   01D9 CDr00s00            400 	call	___fsmul
   01DC E8 08               401 	lda	sp,8(sp)
   01DE E5                  402 	push	hl
   01DF F8 06               403 	lda	hl,6(sp)
   01E1 73                  404 	ld	(hl),e
   01E2 23                  405 	inc	hl
   01E3 72                  406 	ld	(hl),d
   01E4 D1                  407 	pop	de
   01E5 23                  408 	inc	hl
   01E6 73                  409 	ld	(hl),e
   01E7 23                  410 	inc	hl
   01E8 72                  411 	ld	(hl),d
   01E9 F8 06               412 	lda	hl,6(sp)
   01EB 2A                  413 	ld	a,(hl+)
   01EC 66                  414 	ld	h,(hl)
   01ED 6F                  415 	ld	l,a
   01EE E5                  416 	push	hl
   01EF F8 06               417 	lda	hl,6(sp)
   01F1 2A                  418 	ld	a,(hl+)
   01F2 66                  419 	ld	h,(hl)
   01F3 6F                  420 	ld	l,a
   01F4 E5                  421 	push	hl
   01F5 F8 06               422 	lda	hl,6(sp)
   01F7 2A                  423 	ld	a,(hl+)
   01F8 66                  424 	ld	h,(hl)
   01F9 6F                  425 	ld	l,a
   01FA E5                  426 	push	hl
   01FB F8 06               427 	lda	hl,6(sp)
   01FD 2A                  428 	ld	a,(hl+)
   01FE 66                  429 	ld	h,(hl)
   01FF 6F                  430 	ld	l,a
   0200 E5                  431 	push	hl
   0201 CDr00s00            432 	call	___fssub
   0204 E8 08               433 	lda	sp,8(sp)
   0206 E5                  434 	push	hl
   0207 F8 1C               435 	lda	hl,28(sp)
   0209 73                  436 	ld	(hl),e
   020A 23                  437 	inc	hl
   020B 72                  438 	ld	(hl),d
   020C D1                  439 	pop	de
   020D 23                  440 	inc	hl
   020E 73                  441 	ld	(hl),e
   020F 23                  442 	inc	hl
   0210 72                  443 	ld	(hl),d
                            444 ;../tancotf.c:61: if (fabsf(f) < EPS)
   0211 F8 1C               445 	lda	hl,28(sp)
   0213 2A                  446 	ld	a,(hl+)
   0214 66                  447 	ld	h,(hl)
   0215 6F                  448 	ld	l,a
   0216 E5                  449 	push	hl
   0217 F8 1C               450 	lda	hl,28(sp)
   0219 2A                  451 	ld	a,(hl+)
   021A 66                  452 	ld	h,(hl)
   021B 6F                  453 	ld	l,a
   021C E5                  454 	push	hl
   021D CDr00s00            455 	call	_fabsf
   0220 E8 04               456 	lda	sp,4(sp)
   0222 E5                  457 	push	hl
   0223 F8 02               458 	lda	hl,2(sp)
   0225 73                  459 	ld	(hl),e
   0226 23                  460 	inc	hl
   0227 72                  461 	ld	(hl),d
   0228 D1                  462 	pop	de
   0229 23                  463 	inc	hl
   022A 73                  464 	ld	(hl),e
   022B 23                  465 	inc	hl
   022C 72                  466 	ld	(hl),d
   022D 21 80 39            467 	ld	hl,#0x3980
   0230 E5                  468 	push	hl
   0231 21 00 00            469 	ld	hl,#0x0000
   0234 E5                  470 	push	hl
   0235 F8 06               471 	lda	hl,6(sp)
   0237 2A                  472 	ld	a,(hl+)
   0238 66                  473 	ld	h,(hl)
   0239 6F                  474 	ld	l,a
   023A E5                  475 	push	hl
   023B F8 06               476 	lda	hl,6(sp)
   023D 2A                  477 	ld	a,(hl+)
   023E 66                  478 	ld	h,(hl)
   023F 6F                  479 	ld	l,a
   0240 E5                  480 	push	hl
   0241 CDr00s00            481 	call	___fslt
   0244 E8 08               482 	lda	sp,8(sp)
   0246 4B                  483 	ld	c,e
   0247 AF                  484 	xor	a,a
   0248 B1                  485 	or	a,c
   0249 CAr6Ds02            486 	jp	Z,00104$
                            487 ;../tancotf.c:63: xnum = f;
   024C F8 1A               488 	lda	hl,26(sp)
   024E 54                  489 	ld	d,h
   024F 5D                  490 	ld	e,l
   0250 F8 0E               491 	lda	hl,14(sp)
   0252 1A                  492 	ld	a,(de)
   0253 22                  493 	ld	(hl+),a
   0254 13                  494 	inc	de
   0255 1A                  495 	ld	a,(de)
   0256 22                  496 	ld	(hl+),a
   0257 13                  497 	inc	de
   0258 1A                  498 	ld	a,(de)
   0259 22                  499 	ld	(hl+),a
   025A 13                  500 	inc	de
   025B 1A                  501 	ld	a,(de)
   025C 77                  502 	ld	(hl),a
                            503 ;../tancotf.c:64: xden = 1.0;
   025D F8 0A               504 	lda	hl,10(sp)
   025F 36 00               505 	ld	(hl),#0x00
   0261 23                  506 	inc	hl
   0262 36 00               507 	ld	(hl),#0x00
   0264 23                  508 	inc	hl
   0265 36 80               509 	ld	(hl),#0x80
   0267 23                  510 	inc	hl
   0268 36 3F               511 	ld	(hl),#0x3F
   026A C3rBFs03            512 	jp	00105$
   026D                     513 00104$:
                            514 ;../tancotf.c:68: g = f*f;
   026D F8 1C               515 	lda	hl,28(sp)
   026F 2A                  516 	ld	a,(hl+)
   0270 66                  517 	ld	h,(hl)
   0271 6F                  518 	ld	l,a
   0272 E5                  519 	push	hl
   0273 F8 1C               520 	lda	hl,28(sp)
   0275 2A                  521 	ld	a,(hl+)
   0276 66                  522 	ld	h,(hl)
   0277 6F                  523 	ld	l,a
   0278 E5                  524 	push	hl
   0279 F8 20               525 	lda	hl,32(sp)
   027B 2A                  526 	ld	a,(hl+)
   027C 66                  527 	ld	h,(hl)
   027D 6F                  528 	ld	l,a
   027E E5                  529 	push	hl
   027F F8 20               530 	lda	hl,32(sp)
   0281 2A                  531 	ld	a,(hl+)
   0282 66                  532 	ld	h,(hl)
   0283 6F                  533 	ld	l,a
   0284 E5                  534 	push	hl
   0285 CDr00s00            535 	call	___fsmul
   0288 E8 08               536 	lda	sp,8(sp)
   028A E5                  537 	push	hl
   028B F8 18               538 	lda	hl,24(sp)
   028D 73                  539 	ld	(hl),e
   028E 23                  540 	inc	hl
   028F 72                  541 	ld	(hl),d
   0290 D1                  542 	pop	de
   0291 23                  543 	inc	hl
   0292 73                  544 	ld	(hl),e
   0293 23                  545 	inc	hl
   0294 72                  546 	ld	(hl),d
                            547 ;../tancotf.c:69: xnum = P(f,g);
   0295 F8 18               548 	lda	hl,24(sp)
   0297 2A                  549 	ld	a,(hl+)
   0298 66                  550 	ld	h,(hl)
   0299 6F                  551 	ld	l,a
   029A E5                  552 	push	hl
   029B F8 18               553 	lda	hl,24(sp)
   029D 2A                  554 	ld	a,(hl+)
   029E 66                  555 	ld	h,(hl)
   029F 6F                  556 	ld	l,a
   02A0 E5                  557 	push	hl
   02A1 21 C4 BD            558 	ld	hl,#0xBDC4
   02A4 E5                  559 	push	hl
   02A5 21 B8 33            560 	ld	hl,#0x33B8
   02A8 E5                  561 	push	hl
   02A9 CDr00s00            562 	call	___fsmul
   02AC E8 08               563 	lda	sp,8(sp)
   02AE E5                  564 	push	hl
   02AF F8 02               565 	lda	hl,2(sp)
   02B1 73                  566 	ld	(hl),e
   02B2 23                  567 	inc	hl
   02B3 72                  568 	ld	(hl),d
   02B4 D1                  569 	pop	de
   02B5 23                  570 	inc	hl
   02B6 73                  571 	ld	(hl),e
   02B7 23                  572 	inc	hl
   02B8 72                  573 	ld	(hl),d
   02B9 F8 1C               574 	lda	hl,28(sp)
   02BB 2A                  575 	ld	a,(hl+)
   02BC 66                  576 	ld	h,(hl)
   02BD 6F                  577 	ld	l,a
   02BE E5                  578 	push	hl
   02BF F8 1C               579 	lda	hl,28(sp)
   02C1 2A                  580 	ld	a,(hl+)
   02C2 66                  581 	ld	h,(hl)
   02C3 6F                  582 	ld	l,a
   02C4 E5                  583 	push	hl
   02C5 F8 06               584 	lda	hl,6(sp)
   02C7 2A                  585 	ld	a,(hl+)
   02C8 66                  586 	ld	h,(hl)
   02C9 6F                  587 	ld	l,a
   02CA E5                  588 	push	hl
   02CB F8 06               589 	lda	hl,6(sp)
   02CD 2A                  590 	ld	a,(hl+)
   02CE 66                  591 	ld	h,(hl)
   02CF 6F                  592 	ld	l,a
   02D0 E5                  593 	push	hl
   02D1 CDr00s00            594 	call	___fsmul
   02D4 E8 08               595 	lda	sp,8(sp)
   02D6 E5                  596 	push	hl
   02D7 F8 02               597 	lda	hl,2(sp)
   02D9 73                  598 	ld	(hl),e
   02DA 23                  599 	inc	hl
   02DB 72                  600 	ld	(hl),d
   02DC D1                  601 	pop	de
   02DD 23                  602 	inc	hl
   02DE 73                  603 	ld	(hl),e
   02DF 23                  604 	inc	hl
   02E0 72                  605 	ld	(hl),d
   02E1 F8 1C               606 	lda	hl,28(sp)
   02E3 2A                  607 	ld	a,(hl+)
   02E4 66                  608 	ld	h,(hl)
   02E5 6F                  609 	ld	l,a
   02E6 E5                  610 	push	hl
   02E7 F8 1C               611 	lda	hl,28(sp)
   02E9 2A                  612 	ld	a,(hl+)
   02EA 66                  613 	ld	h,(hl)
   02EB 6F                  614 	ld	l,a
   02EC E5                  615 	push	hl
   02ED F8 06               616 	lda	hl,6(sp)
   02EF 2A                  617 	ld	a,(hl+)
   02F0 66                  618 	ld	h,(hl)
   02F1 6F                  619 	ld	l,a
   02F2 E5                  620 	push	hl
   02F3 F8 06               621 	lda	hl,6(sp)
   02F5 2A                  622 	ld	a,(hl+)
   02F6 66                  623 	ld	h,(hl)
   02F7 6F                  624 	ld	l,a
   02F8 E5                  625 	push	hl
   02F9 CDr00s00            626 	call	___fsadd
   02FC E8 08               627 	lda	sp,8(sp)
   02FE E5                  628 	push	hl
   02FF F8 02               629 	lda	hl,2(sp)
   0301 73                  630 	ld	(hl),e
   0302 23                  631 	inc	hl
   0303 72                  632 	ld	(hl),d
   0304 D1                  633 	pop	de
   0305 23                  634 	inc	hl
   0306 73                  635 	ld	(hl),e
   0307 23                  636 	inc	hl
   0308 72                  637 	ld	(hl),d
   0309 F8 00               638 	lda	hl,0(sp)
   030B 54                  639 	ld	d,h
   030C 5D                  640 	ld	e,l
   030D F8 0E               641 	lda	hl,14(sp)
   030F 1A                  642 	ld	a,(de)
   0310 22                  643 	ld	(hl+),a
   0311 13                  644 	inc	de
   0312 1A                  645 	ld	a,(de)
   0313 22                  646 	ld	(hl+),a
   0314 13                  647 	inc	de
   0315 1A                  648 	ld	a,(de)
   0316 22                  649 	ld	(hl+),a
   0317 13                  650 	inc	de
   0318 1A                  651 	ld	a,(de)
   0319 77                  652 	ld	(hl),a
                            653 ;../tancotf.c:70: xden = Q(g);
   031A F8 18               654 	lda	hl,24(sp)
   031C 2A                  655 	ld	a,(hl+)
   031D 66                  656 	ld	h,(hl)
   031E 6F                  657 	ld	l,a
   031F E5                  658 	push	hl
   0320 F8 18               659 	lda	hl,24(sp)
   0322 2A                  660 	ld	a,(hl+)
   0323 66                  661 	ld	h,(hl)
   0324 6F                  662 	ld	l,a
   0325 E5                  663 	push	hl
   0326 21 1F 3C            664 	ld	hl,#0x3C1F
   0329 E5                  665 	push	hl
   032A 21 75 33            666 	ld	hl,#0x3375
   032D E5                  667 	push	hl
   032E CDr00s00            668 	call	___fsmul
   0331 E8 08               669 	lda	sp,8(sp)
   0333 E5                  670 	push	hl
   0334 F8 02               671 	lda	hl,2(sp)
   0336 73                  672 	ld	(hl),e
   0337 23                  673 	inc	hl
   0338 72                  674 	ld	(hl),d
   0339 D1                  675 	pop	de
   033A 23                  676 	inc	hl
   033B 73                  677 	ld	(hl),e
   033C 23                  678 	inc	hl
   033D 72                  679 	ld	(hl),d
   033E 21 DB BE            680 	ld	hl,#0xBEDB
   0341 E5                  681 	push	hl
   0342 21 AF B7            682 	ld	hl,#0xB7AF
   0345 E5                  683 	push	hl
   0346 F8 06               684 	lda	hl,6(sp)
   0348 2A                  685 	ld	a,(hl+)
   0349 66                  686 	ld	h,(hl)
   034A 6F                  687 	ld	l,a
   034B E5                  688 	push	hl
   034C F8 06               689 	lda	hl,6(sp)
   034E 2A                  690 	ld	a,(hl+)
   034F 66                  691 	ld	h,(hl)
   0350 6F                  692 	ld	l,a
   0351 E5                  693 	push	hl
   0352 CDr00s00            694 	call	___fsadd
   0355 E8 08               695 	lda	sp,8(sp)
   0357 E5                  696 	push	hl
   0358 F8 02               697 	lda	hl,2(sp)
   035A 73                  698 	ld	(hl),e
   035B 23                  699 	inc	hl
   035C 72                  700 	ld	(hl),d
   035D D1                  701 	pop	de
   035E 23                  702 	inc	hl
   035F 73                  703 	ld	(hl),e
   0360 23                  704 	inc	hl
   0361 72                  705 	ld	(hl),d
   0362 F8 18               706 	lda	hl,24(sp)
   0364 2A                  707 	ld	a,(hl+)
   0365 66                  708 	ld	h,(hl)
   0366 6F                  709 	ld	l,a
   0367 E5                  710 	push	hl
   0368 F8 18               711 	lda	hl,24(sp)
   036A 2A                  712 	ld	a,(hl+)
   036B 66                  713 	ld	h,(hl)
   036C 6F                  714 	ld	l,a
   036D E5                  715 	push	hl
   036E F8 06               716 	lda	hl,6(sp)
   0370 2A                  717 	ld	a,(hl+)
   0371 66                  718 	ld	h,(hl)
   0372 6F                  719 	ld	l,a
   0373 E5                  720 	push	hl
   0374 F8 06               721 	lda	hl,6(sp)
   0376 2A                  722 	ld	a,(hl+)
   0377 66                  723 	ld	h,(hl)
   0378 6F                  724 	ld	l,a
   0379 E5                  725 	push	hl
   037A CDr00s00            726 	call	___fsmul
   037D E8 08               727 	lda	sp,8(sp)
   037F E5                  728 	push	hl
   0380 F8 02               729 	lda	hl,2(sp)
   0382 73                  730 	ld	(hl),e
   0383 23                  731 	inc	hl
   0384 72                  732 	ld	(hl),d
   0385 D1                  733 	pop	de
   0386 23                  734 	inc	hl
   0387 73                  735 	ld	(hl),e
   0388 23                  736 	inc	hl
   0389 72                  737 	ld	(hl),d
   038A 21 80 3F            738 	ld	hl,#0x3F80
   038D E5                  739 	push	hl
   038E 21 00 00            740 	ld	hl,#0x0000
   0391 E5                  741 	push	hl
   0392 F8 06               742 	lda	hl,6(sp)
   0394 2A                  743 	ld	a,(hl+)
   0395 66                  744 	ld	h,(hl)
   0396 6F                  745 	ld	l,a
   0397 E5                  746 	push	hl
   0398 F8 06               747 	lda	hl,6(sp)
   039A 2A                  748 	ld	a,(hl+)
   039B 66                  749 	ld	h,(hl)
   039C 6F                  750 	ld	l,a
   039D E5                  751 	push	hl
   039E CDr00s00            752 	call	___fsadd
   03A1 E8 08               753 	lda	sp,8(sp)
   03A3 E5                  754 	push	hl
   03A4 F8 02               755 	lda	hl,2(sp)
   03A6 73                  756 	ld	(hl),e
   03A7 23                  757 	inc	hl
   03A8 72                  758 	ld	(hl),d
   03A9 D1                  759 	pop	de
   03AA 23                  760 	inc	hl
   03AB 73                  761 	ld	(hl),e
   03AC 23                  762 	inc	hl
   03AD 72                  763 	ld	(hl),d
   03AE F8 00               764 	lda	hl,0(sp)
   03B0 54                  765 	ld	d,h
   03B1 5D                  766 	ld	e,l
   03B2 F8 0A               767 	lda	hl,10(sp)
   03B4 1A                  768 	ld	a,(de)
   03B5 22                  769 	ld	(hl+),a
   03B6 13                  770 	inc	de
   03B7 1A                  771 	ld	a,(de)
   03B8 22                  772 	ld	(hl+),a
   03B9 13                  773 	inc	de
   03BA 1A                  774 	ld	a,(de)
   03BB 22                  775 	ld	(hl+),a
   03BC 13                  776 	inc	de
   03BD 1A                  777 	ld	a,(de)
   03BE 77                  778 	ld	(hl),a
   03BF                     779 00105$:
                            780 ;../tancotf.c:73: if(n&1)
   03BF F8 08               781 	lda	hl,8(sp)
   03C1 7E                  782 	ld	a,(hl)
   03C2 E6 01               783 	and	a,#0x01
   03C4 20 03               784 	jr	NZ,00125$
   03C6 C3r6Es04            785 	jp	00113$
   03C9                     786 00125$:
                            787 ;../tancotf.c:76: if(iscotan) return (-xnum/xden);
   03C9 F8 24               788 	lda	hl,36(sp)
   03CB 2A                  789 	ld	a,(hl+)
   03CC B6                  790 	or	a,(hl)
   03CD CAr1Fs04            791 	jp	Z,00107$
   03D0 F8 11               792 	lda	hl,17(sp)
   03D2 7E                  793 	ld	a,(hl)
   03D3 EE 80               794 	xor	a,#0x80
   03D5 F8 03               795 	lda	hl,3(sp)
   03D7 77                  796 	ld	(hl),a
   03D8 F8 0E               797 	lda	hl,14(sp)
   03DA 7E                  798 	ld	a,(hl)
   03DB F8 00               799 	lda	hl,0(sp)
   03DD 77                  800 	ld	(hl),a
   03DE F8 0F               801 	lda	hl,15(sp)
   03E0 7E                  802 	ld	a,(hl)
   03E1 F8 01               803 	lda	hl,1(sp)
   03E3 77                  804 	ld	(hl),a
   03E4 F8 10               805 	lda	hl,16(sp)
   03E6 7E                  806 	ld	a,(hl)
   03E7 F8 02               807 	lda	hl,2(sp)
   03E9 77                  808 	ld	(hl),a
   03EA F8 0C               809 	lda	hl,12(sp)
   03EC 2A                  810 	ld	a,(hl+)
   03ED 66                  811 	ld	h,(hl)
   03EE 6F                  812 	ld	l,a
   03EF E5                  813 	push	hl
   03F0 F8 0C               814 	lda	hl,12(sp)
   03F2 2A                  815 	ld	a,(hl+)
   03F3 66                  816 	ld	h,(hl)
   03F4 6F                  817 	ld	l,a
   03F5 E5                  818 	push	hl
   03F6 F8 06               819 	lda	hl,6(sp)
   03F8 2A                  820 	ld	a,(hl+)
   03F9 66                  821 	ld	h,(hl)
   03FA 6F                  822 	ld	l,a
   03FB E5                  823 	push	hl
   03FC F8 06               824 	lda	hl,6(sp)
   03FE 2A                  825 	ld	a,(hl+)
   03FF 66                  826 	ld	h,(hl)
   0400 6F                  827 	ld	l,a
   0401 E5                  828 	push	hl
   0402 CDr00s00            829 	call	___fsdiv
   0405 E8 08               830 	lda	sp,8(sp)
   0407 E5                  831 	push	hl
   0408 F8 02               832 	lda	hl,2(sp)
   040A 73                  833 	ld	(hl),e
   040B 23                  834 	inc	hl
   040C 72                  835 	ld	(hl),d
   040D D1                  836 	pop	de
   040E 23                  837 	inc	hl
   040F 73                  838 	ld	(hl),e
   0410 23                  839 	inc	hl
   0411 72                  840 	ld	(hl),d
   0412 F8 01               841 	lda	hl,1(sp)
   0414 2B                  842 	dec	hl
   0415 5E                  843 	ld	e,(hl)
   0416 23                  844 	inc	hl
   0417 56                  845 	ld	d,(hl)
   0418 23                  846 	inc	hl
   0419 2A                  847 	ld	a,(hl+)
   041A 66                  848 	ld	h,(hl)
   041B 6F                  849 	ld	l,a
   041C C3rDCs04            850 	jp	00115$
   041F                     851 00107$:
                            852 ;../tancotf.c:77: else return (-xden/xnum);
   041F F8 0D               853 	lda	hl,13(sp)
   0421 7E                  854 	ld	a,(hl)
   0422 EE 80               855 	xor	a,#0x80
   0424 F8 03               856 	lda	hl,3(sp)
   0426 77                  857 	ld	(hl),a
   0427 F8 0A               858 	lda	hl,10(sp)
   0429 7E                  859 	ld	a,(hl)
   042A F8 00               860 	lda	hl,0(sp)
   042C 77                  861 	ld	(hl),a
   042D F8 0B               862 	lda	hl,11(sp)
   042F 7E                  863 	ld	a,(hl)
   0430 F8 01               864 	lda	hl,1(sp)
   0432 77                  865 	ld	(hl),a
   0433 F8 0C               866 	lda	hl,12(sp)
   0435 7E                  867 	ld	a,(hl)
   0436 F8 02               868 	lda	hl,2(sp)
   0438 77                  869 	ld	(hl),a
   0439 F8 10               870 	lda	hl,16(sp)
   043B 2A                  871 	ld	a,(hl+)
   043C 66                  872 	ld	h,(hl)
   043D 6F                  873 	ld	l,a
   043E E5                  874 	push	hl
   043F F8 10               875 	lda	hl,16(sp)
   0441 2A                  876 	ld	a,(hl+)
   0442 66                  877 	ld	h,(hl)
   0443 6F                  878 	ld	l,a
   0444 E5                  879 	push	hl
   0445 F8 06               880 	lda	hl,6(sp)
   0447 2A                  881 	ld	a,(hl+)
   0448 66                  882 	ld	h,(hl)
   0449 6F                  883 	ld	l,a
   044A E5                  884 	push	hl
   044B F8 06               885 	lda	hl,6(sp)
   044D 2A                  886 	ld	a,(hl+)
   044E 66                  887 	ld	h,(hl)
   044F 6F                  888 	ld	l,a
   0450 E5                  889 	push	hl
   0451 CDr00s00            890 	call	___fsdiv
   0454 E8 08               891 	lda	sp,8(sp)
   0456 E5                  892 	push	hl
   0457 F8 02               893 	lda	hl,2(sp)
   0459 73                  894 	ld	(hl),e
   045A 23                  895 	inc	hl
   045B 72                  896 	ld	(hl),d
   045C D1                  897 	pop	de
   045D 23                  898 	inc	hl
   045E 73                  899 	ld	(hl),e
   045F 23                  900 	inc	hl
   0460 72                  901 	ld	(hl),d
   0461 F8 01               902 	lda	hl,1(sp)
   0463 2B                  903 	dec	hl
   0464 5E                  904 	ld	e,(hl)
   0465 23                  905 	inc	hl
   0466 56                  906 	ld	d,(hl)
   0467 23                  907 	inc	hl
   0468 2A                  908 	ld	a,(hl+)
   0469 66                  909 	ld	h,(hl)
   046A 6F                  910 	ld	l,a
   046B C3rDCs04            911 	jp	00115$
   046E                     912 00113$:
                            913 ;../tancotf.c:81: if(iscotan) return (xden/xnum);
   046E F8 24               914 	lda	hl,36(sp)
   0470 2A                  915 	ld	a,(hl+)
   0471 B6                  916 	or	a,(hl)
   0472 CArAAs04            917 	jp	Z,00110$
   0475 F8 10               918 	lda	hl,16(sp)
   0477 2A                  919 	ld	a,(hl+)
   0478 66                  920 	ld	h,(hl)
   0479 6F                  921 	ld	l,a
   047A E5                  922 	push	hl
   047B F8 10               923 	lda	hl,16(sp)
   047D 2A                  924 	ld	a,(hl+)
   047E 66                  925 	ld	h,(hl)
   047F 6F                  926 	ld	l,a
   0480 E5                  927 	push	hl
   0481 F8 10               928 	lda	hl,16(sp)
   0483 2A                  929 	ld	a,(hl+)
   0484 66                  930 	ld	h,(hl)
   0485 6F                  931 	ld	l,a
   0486 E5                  932 	push	hl
   0487 F8 10               933 	lda	hl,16(sp)
   0489 2A                  934 	ld	a,(hl+)
   048A 66                  935 	ld	h,(hl)
   048B 6F                  936 	ld	l,a
   048C E5                  937 	push	hl
   048D CDr00s00            938 	call	___fsdiv
   0490 E8 08               939 	lda	sp,8(sp)
   0492 E5                  940 	push	hl
   0493 F8 02               941 	lda	hl,2(sp)
   0495 73                  942 	ld	(hl),e
   0496 23                  943 	inc	hl
   0497 72                  944 	ld	(hl),d
   0498 D1                  945 	pop	de
   0499 23                  946 	inc	hl
   049A 73                  947 	ld	(hl),e
   049B 23                  948 	inc	hl
   049C 72                  949 	ld	(hl),d
   049D F8 01               950 	lda	hl,1(sp)
   049F 2B                  951 	dec	hl
   04A0 5E                  952 	ld	e,(hl)
   04A1 23                  953 	inc	hl
   04A2 56                  954 	ld	d,(hl)
   04A3 23                  955 	inc	hl
   04A4 2A                  956 	ld	a,(hl+)
   04A5 66                  957 	ld	h,(hl)
   04A6 6F                  958 	ld	l,a
   04A7 C3rDCs04            959 	jp	00115$
   04AA                     960 00110$:
                            961 ;../tancotf.c:82: else return (xnum/xden);
   04AA F8 0C               962 	lda	hl,12(sp)
   04AC 2A                  963 	ld	a,(hl+)
   04AD 66                  964 	ld	h,(hl)
   04AE 6F                  965 	ld	l,a
   04AF E5                  966 	push	hl
   04B0 F8 0C               967 	lda	hl,12(sp)
   04B2 2A                  968 	ld	a,(hl+)
   04B3 66                  969 	ld	h,(hl)
   04B4 6F                  970 	ld	l,a
   04B5 E5                  971 	push	hl
   04B6 F8 14               972 	lda	hl,20(sp)
   04B8 2A                  973 	ld	a,(hl+)
   04B9 66                  974 	ld	h,(hl)
   04BA 6F                  975 	ld	l,a
   04BB E5                  976 	push	hl
   04BC F8 14               977 	lda	hl,20(sp)
   04BE 2A                  978 	ld	a,(hl+)
   04BF 66                  979 	ld	h,(hl)
   04C0 6F                  980 	ld	l,a
   04C1 E5                  981 	push	hl
   04C2 CDr00s00            982 	call	___fsdiv
   04C5 E8 08               983 	lda	sp,8(sp)
   04C7 E5                  984 	push	hl
   04C8 F8 02               985 	lda	hl,2(sp)
   04CA 73                  986 	ld	(hl),e
   04CB 23                  987 	inc	hl
   04CC 72                  988 	ld	(hl),d
   04CD D1                  989 	pop	de
   04CE 23                  990 	inc	hl
   04CF 73                  991 	ld	(hl),e
   04D0 23                  992 	inc	hl
   04D1 72                  993 	ld	(hl),d
   04D2 F8 01               994 	lda	hl,1(sp)
   04D4 2B                  995 	dec	hl
   04D5 5E                  996 	ld	e,(hl)
   04D6 23                  997 	inc	hl
   04D7 56                  998 	ld	d,(hl)
   04D8 23                  999 	inc	hl
   04D9 2A                 1000 	ld	a,(hl+)
   04DA 66                 1001 	ld	h,(hl)
   04DB 6F                 1002 	ld	l,a
   04DC                    1003 00115$:
   04DC E8 1E              1004 	lda	sp,30(sp)
   04DE C9                 1005 	ret
   04DF                    1006 _tancotf_end::
                           1007 	.area _CODE
                           1008 	.area _CABS
