                              1 ;--------------------------------------------------------
                              2 ; File Created by SDCC : free open source ANSI-C Compiler
                              3 ; Version 2.9.4 #5595 (Oct 23 2013) (Mac OS X ppc)
                              4 ; This file was generated Wed Oct 23 12:25:49 2013
                              5 ;--------------------------------------------------------
                              6 	.module _realloc
                              7 	.optsdcc -mmcs51 --model-medium
                              8 	
                              9 ;--------------------------------------------------------
                             10 ; Public variables in this module
                             11 ;--------------------------------------------------------
                             12 	.globl _realloc_PARM_2
                             13 	.globl _realloc
                             14 ;--------------------------------------------------------
                             15 ; special function registers
                             16 ;--------------------------------------------------------
                             17 	.area RSEG    (ABS,DATA)
   0000                      18 	.org 0x0000
                             19 ;--------------------------------------------------------
                             20 ; special function bits
                             21 ;--------------------------------------------------------
                             22 	.area RSEG    (ABS,DATA)
   0000                      23 	.org 0x0000
                             24 ;--------------------------------------------------------
                             25 ; overlayable register banks
                             26 ;--------------------------------------------------------
                             27 	.area REG_BANK_0	(REL,OVR,DATA)
   0000                      28 	.ds 8
                             29 ;--------------------------------------------------------
                             30 ; internal ram data
                             31 ;--------------------------------------------------------
                             32 	.area DSEG    (DATA)
                             33 ;--------------------------------------------------------
                             34 ; overlayable items in internal ram 
                             35 ;--------------------------------------------------------
                             36 	.area OSEG    (OVR,DATA)
                             37 ;--------------------------------------------------------
                             38 ; indirectly addressable internal ram data
                             39 ;--------------------------------------------------------
                             40 	.area ISEG    (DATA)
                             41 ;--------------------------------------------------------
                             42 ; absolute internal ram data
                             43 ;--------------------------------------------------------
                             44 	.area IABS    (ABS,DATA)
                             45 	.area IABS    (ABS,DATA)
                             46 ;--------------------------------------------------------
                             47 ; bit data
                             48 ;--------------------------------------------------------
                             49 	.area BSEG    (BIT)
                             50 ;--------------------------------------------------------
                             51 ; paged external ram data
                             52 ;--------------------------------------------------------
                             53 	.area PSEG    (PAG,XDATA)
   0000                      54 _realloc_PARM_2:
   0000                      55 	.ds 2
   0002                      56 _realloc_p_1_1:
   0002                      57 	.ds 3
   0005                      58 _realloc_pthis_1_1:
   0005                      59 	.ds 2
   0007                      60 _realloc_pnew_1_1:
   0007                      61 	.ds 2
   0009                      62 _realloc_ret_1_1:
   0009                      63 	.ds 2
                             64 ;--------------------------------------------------------
                             65 ; external ram data
                             66 ;--------------------------------------------------------
                             67 	.area XSEG    (XDATA)
                             68 ;--------------------------------------------------------
                             69 ; absolute external ram data
                             70 ;--------------------------------------------------------
                             71 	.area XABS    (ABS,XDATA)
                             72 ;--------------------------------------------------------
                             73 ; external initialized ram data
                             74 ;--------------------------------------------------------
                             75 	.area XISEG   (XDATA)
                             76 	.area HOME    (CODE)
                             77 	.area GSINIT0 (CODE)
                             78 	.area GSINIT1 (CODE)
                             79 	.area GSINIT2 (CODE)
                             80 	.area GSINIT3 (CODE)
                             81 	.area GSINIT4 (CODE)
                             82 	.area GSINIT5 (CODE)
                             83 	.area GSINIT  (CODE)
                             84 	.area GSFINAL (CODE)
                             85 	.area CSEG    (CODE)
                             86 ;--------------------------------------------------------
                             87 ; global & static initialisations
                             88 ;--------------------------------------------------------
                             89 	.area HOME    (CODE)
                             90 	.area GSINIT  (CODE)
                             91 	.area GSFINAL (CODE)
                             92 	.area GSINIT  (CODE)
                             93 ;--------------------------------------------------------
                             94 ; Home
                             95 ;--------------------------------------------------------
                             96 	.area HOME    (CODE)
                             97 	.area HOME    (CODE)
                             98 ;--------------------------------------------------------
                             99 ; code
                            100 ;--------------------------------------------------------
                            101 	.area CSEG    (CODE)
                            102 ;------------------------------------------------------------
                            103 ;Allocation info for local variables in function 'realloc'
                            104 ;------------------------------------------------------------
                            105 ;------------------------------------------------------------
                            106 ;	_realloc.c:76: void __xdata * realloc (void * p, size_t size)
                            107 ;	-----------------------------------------
                            108 ;	 function realloc
                            109 ;	-----------------------------------------
   0000                     110 _realloc:
                    0002    111 	ar2 = 0x02
                    0003    112 	ar3 = 0x03
                    0004    113 	ar4 = 0x04
                    0005    114 	ar5 = 0x05
                    0006    115 	ar6 = 0x06
                    0007    116 	ar7 = 0x07
                    0000    117 	ar0 = 0x00
                    0001    118 	ar1 = 0x01
   0000 AA F0               119 	mov	r2,b
   0002 AB 83               120 	mov	r3,dph
   0004 E5 82               121 	mov	a,dpl
   0006 78r02               122 	mov	r0,#_realloc_p_1_1
   0008 F2                  123 	movx	@r0,a
   0009 08                  124 	inc	r0
   000A EB                  125 	mov	a,r3
   000B F2                  126 	movx	@r0,a
   000C 08                  127 	inc	r0
   000D EA                  128 	mov	a,r2
   000E F2                  129 	movx	@r0,a
                            130 ;	_realloc.c:84: pthis = _sdcc_find_memheader(p);
   000F 78r02               131 	mov	r0,#_realloc_p_1_1
   0011 E2                  132 	movx	a,@r0
   0012 FD                  133 	mov	r5,a
   0013 08                  134 	inc	r0
   0014 E2                  135 	movx	a,@r0
   0015 FE                  136 	mov	r6,a
   0016 8D 82               137 	mov	dpl,r5
   0018 8E 83               138 	mov	dph,r6
   001A 12s00r00            139 	lcall	__sdcc_find_memheader
   001D 78r05               140 	mov	r0,#_realloc_pthis_1_1
   001F E5 82               141 	mov	a,dpl
   0021 F2                  142 	movx	@r0,a
   0022 08                  143 	inc	r0
   0023 E5 83               144 	mov	a,dph
   0025 F2                  145 	movx	@r0,a
                            146 ;	_realloc.c:85: if (pthis)
   0026 78r05               147 	mov	r0,#_realloc_pthis_1_1
   0028 E2                  148 	movx	a,@r0
   0029 F5 F0               149 	mov	b,a
   002B 08                  150 	inc	r0
   002C E2                  151 	movx	a,@r0
   002D 45 F0               152 	orl	a,b
   002F 70 03               153 	jnz	00124$
   0031 02s01rE6            154 	ljmp	00114$
   0034                     155 00124$:
                            156 ;	_realloc.c:87: if (size > (0xFFFF-HEADER_SIZE))
   0034 78r00               157 	mov	r0,#_realloc_PARM_2
   0036 C3                  158 	clr	c
   0037 E2                  159 	movx	a,@r0
   0038 F5 F0               160 	mov	b,a
   003A 74 FB               161 	mov	a,#0xFB
   003C 95 F0               162 	subb	a,b
   003E 08                  163 	inc	r0
   003F E2                  164 	movx	a,@r0
   0040 F5 F0               165 	mov	b,a
   0042 74 FF               166 	mov	a,#0xFF
   0044 95 F0               167 	subb	a,b
   0046 50 09               168 	jnc	00111$
                            169 ;	_realloc.c:89: ret = (void __xdata *) NULL; //To prevent overflow in next line
   0048 78r09               170 	mov	r0,#_realloc_ret_1_1
   004A E4                  171 	clr	a
   004B F2                  172 	movx	@r0,a
   004C 08                  173 	inc	r0
   004D F2                  174 	movx	@r0,a
   004E 02s01rFB            175 	ljmp	00115$
   0051                     176 00111$:
                            177 ;	_realloc.c:93: size += HEADER_SIZE; //We need a memory for header too
   0051 78r00               178 	mov	r0,#_realloc_PARM_2
   0053 E2                  179 	movx	a,@r0
   0054 24 04               180 	add	a,#0x04
   0056 F2                  181 	movx	@r0,a
   0057 08                  182 	inc	r0
   0058 E2                  183 	movx	a,@r0
   0059 34 00               184 	addc	a,#0x00
   005B F2                  185 	movx	@r0,a
                            186 ;	_realloc.c:95: if ((((unsigned int)pthis->next) - ((unsigned int)pthis)) >= size)
   005C 78r05               187 	mov	r0,#_realloc_pthis_1_1
   005E E2                  188 	movx	a,@r0
   005F F5 82               189 	mov	dpl,a
   0061 08                  190 	inc	r0
   0062 E2                  191 	movx	a,@r0
   0063 F5 83               192 	mov	dph,a
   0065 E0                  193 	movx	a,@dptr
   0066 FF                  194 	mov	r7,a
   0067 A3                  195 	inc	dptr
   0068 E0                  196 	movx	a,@dptr
   0069 FA                  197 	mov	r2,a
   006A 8F 03               198 	mov	ar3,r7
   006C 8A 04               199 	mov	ar4,r2
   006E 78r05               200 	mov	r0,#_realloc_pthis_1_1
   0070 E2                  201 	movx	a,@r0
   0071 FD                  202 	mov	r5,a
   0072 08                  203 	inc	r0
   0073 E2                  204 	movx	a,@r0
   0074 FE                  205 	mov	r6,a
   0075 EB                  206 	mov	a,r3
   0076 C3                  207 	clr	c
   0077 9D                  208 	subb	a,r5
   0078 FB                  209 	mov	r3,a
   0079 EC                  210 	mov	a,r4
   007A 9E                  211 	subb	a,r6
   007B FC                  212 	mov	r4,a
   007C 78r00               213 	mov	r0,#_realloc_PARM_2
   007E C3                  214 	clr	c
   007F E2                  215 	movx	a,@r0
   0080 F5 F0               216 	mov	b,a
   0082 EB                  217 	mov	a,r3
   0083 95 F0               218 	subb	a,b
   0085 08                  219 	inc	r0
   0086 E2                  220 	movx	a,@r0
   0087 F5 F0               221 	mov	b,a
   0089 EC                  222 	mov	a,r4
   008A 95 F0               223 	subb	a,b
   008C 40 22               224 	jc	00108$
                            225 ;	_realloc.c:97: pthis->len = size;
   008E 78r05               226 	mov	r0,#_realloc_pthis_1_1
   0090 E2                  227 	movx	a,@r0
   0091 24 02               228 	add	a,#0x02
   0093 F5 82               229 	mov	dpl,a
   0095 08                  230 	inc	r0
   0096 E2                  231 	movx	a,@r0
   0097 34 00               232 	addc	a,#0x00
   0099 F5 83               233 	mov	dph,a
   009B 78r00               234 	mov	r0,#_realloc_PARM_2
   009D E2                  235 	movx	a,@r0
   009E F0                  236 	movx	@dptr,a
   009F A3                  237 	inc	dptr
   00A0 08                  238 	inc	r0
   00A1 E2                  239 	movx	a,@r0
   00A2 F0                  240 	movx	@dptr,a
                            241 ;	_realloc.c:98: ret = p;
   00A3 78r02               242 	mov	r0,#_realloc_p_1_1
   00A5 79r09               243 	mov	r1,#_realloc_ret_1_1
   00A7 E2                  244 	movx	a,@r0
   00A8 F3                  245 	movx	@r1,a
   00A9 08                  246 	inc	r0
   00AA E2                  247 	movx	a,@r0
   00AB 09                  248 	inc	r1
   00AC F3                  249 	movx	@r1,a
   00AD 02s01rFB            250 	ljmp	00115$
   00B0                     251 00108$:
                            252 ;	_realloc.c:102: if ((_sdcc_prev_memheader) &&
   00B0 78r00               253 	mov	r0,#__sdcc_prev_memheader
   00B2 E2                  254 	movx	a,@r0
   00B3 F5 F0               255 	mov	b,a
   00B5 08                  256 	inc	r0
   00B6 E2                  257 	movx	a,@r0
   00B7 45 F0               258 	orl	a,b
   00B9 70 03               259 	jnz	00127$
   00BB 02s01r6A            260 	ljmp	00104$
   00BE                     261 00127$:
                            262 ;	_realloc.c:103: ((((unsigned int)pthis->next) -
                            263 ;	_realloc.c:104: ((unsigned int)_sdcc_prev_memheader) -
   00BE 78r00               264 	mov	r0,#__sdcc_prev_memheader
   00C0 E2                  265 	movx	a,@r0
   00C1 FB                  266 	mov	r3,a
   00C2 08                  267 	inc	r0
   00C3 E2                  268 	movx	a,@r0
   00C4 FC                  269 	mov	r4,a
   00C5 EF                  270 	mov	a,r7
   00C6 C3                  271 	clr	c
   00C7 9B                  272 	subb	a,r3
   00C8 FF                  273 	mov	r7,a
   00C9 EA                  274 	mov	a,r2
   00CA 9C                  275 	subb	a,r4
   00CB FA                  276 	mov	r2,a
                            277 ;	_realloc.c:105: _sdcc_prev_memheader->len) >= size))
   00CC 78r00               278 	mov	r0,#__sdcc_prev_memheader
   00CE E2                  279 	movx	a,@r0
   00CF FB                  280 	mov	r3,a
   00D0 08                  281 	inc	r0
   00D1 E2                  282 	movx	a,@r0
   00D2 FC                  283 	mov	r4,a
   00D3 8B 82               284 	mov	dpl,r3
   00D5 8C 83               285 	mov	dph,r4
   00D7 A3                  286 	inc	dptr
   00D8 A3                  287 	inc	dptr
   00D9 E0                  288 	movx	a,@dptr
   00DA FD                  289 	mov	r5,a
   00DB A3                  290 	inc	dptr
   00DC E0                  291 	movx	a,@dptr
   00DD FE                  292 	mov	r6,a
   00DE EF                  293 	mov	a,r7
   00DF C3                  294 	clr	c
   00E0 9D                  295 	subb	a,r5
   00E1 FF                  296 	mov	r7,a
   00E2 EA                  297 	mov	a,r2
   00E3 9E                  298 	subb	a,r6
   00E4 FA                  299 	mov	r2,a
   00E5 78r00               300 	mov	r0,#_realloc_PARM_2
   00E7 C3                  301 	clr	c
   00E8 E2                  302 	movx	a,@r0
   00E9 F5 F0               303 	mov	b,a
   00EB EF                  304 	mov	a,r7
   00EC 95 F0               305 	subb	a,b
   00EE 08                  306 	inc	r0
   00EF E2                  307 	movx	a,@r0
   00F0 F5 F0               308 	mov	b,a
   00F2 EA                  309 	mov	a,r2
   00F3 95 F0               310 	subb	a,b
   00F5 40 73               311 	jc	00104$
                            312 ;	_realloc.c:107: pnew = (MEMHEADER __xdata * )((char __xdata *)_sdcc_prev_memheader + _sdcc_prev_memheader->len);
   00F7 78r07               313 	mov	r0,#_realloc_pnew_1_1
   00F9 ED                  314 	mov	a,r5
   00FA 2B                  315 	add	a,r3
   00FB F2                  316 	movx	@r0,a
   00FC EE                  317 	mov	a,r6
   00FD 3C                  318 	addc	a,r4
   00FE 08                  319 	inc	r0
   00FF F2                  320 	movx	@r0,a
                            321 ;	_realloc.c:108: _sdcc_prev_memheader->next = pnew;
   0100 8B 82               322 	mov	dpl,r3
   0102 8C 83               323 	mov	dph,r4
   0104 78r07               324 	mov	r0,#_realloc_pnew_1_1
   0106 E2                  325 	movx	a,@r0
   0107 F0                  326 	movx	@dptr,a
   0108 A3                  327 	inc	dptr
   0109 08                  328 	inc	r0
   010A E2                  329 	movx	a,@r0
   010B F0                  330 	movx	@dptr,a
                            331 ;	_realloc.c:114: memmove(pnew, pthis, pthis->len);
   010C 78r07               332 	mov	r0,#_realloc_pnew_1_1
   010E E2                  333 	movx	a,@r0
   010F FA                  334 	mov	r2,a
   0110 08                  335 	inc	r0
   0111 E2                  336 	movx	a,@r0
   0112 FB                  337 	mov	r3,a
   0113 7C 00               338 	mov	r4,#0x00
   0115 78r05               339 	mov	r0,#_realloc_pthis_1_1
   0117 79r00               340 	mov	r1,#_memmove_PARM_2
   0119 E2                  341 	movx	a,@r0
   011A F3                  342 	movx	@r1,a
   011B 08                  343 	inc	r0
   011C E2                  344 	movx	a,@r0
   011D 09                  345 	inc	r1
   011E F3                  346 	movx	@r1,a
   011F 09                  347 	inc	r1
   0120 E4                  348 	clr	a
   0121 F3                  349 	movx	@r1,a
   0122 78r05               350 	mov	r0,#_realloc_pthis_1_1
   0124 E2                  351 	movx	a,@r0
   0125 24 02               352 	add	a,#0x02
   0127 F5 82               353 	mov	dpl,a
   0129 08                  354 	inc	r0
   012A E2                  355 	movx	a,@r0
   012B 34 00               356 	addc	a,#0x00
   012D F5 83               357 	mov	dph,a
   012F E0                  358 	movx	a,@dptr
   0130 FF                  359 	mov	r7,a
   0131 A3                  360 	inc	dptr
   0132 E0                  361 	movx	a,@dptr
   0133 FD                  362 	mov	r5,a
   0134 78r00               363 	mov	r0,#_memmove_PARM_3
   0136 EF                  364 	mov	a,r7
   0137 F2                  365 	movx	@r0,a
   0138 08                  366 	inc	r0
   0139 ED                  367 	mov	a,r5
   013A F2                  368 	movx	@r0,a
   013B 8A 82               369 	mov	dpl,r2
   013D 8B 83               370 	mov	dph,r3
   013F 8C F0               371 	mov	b,r4
   0141 12s00r00            372 	lcall	_memmove
                            373 ;	_realloc.c:115: pnew->len = size;
   0144 78r07               374 	mov	r0,#_realloc_pnew_1_1
   0146 E2                  375 	movx	a,@r0
   0147 24 02               376 	add	a,#0x02
   0149 F5 82               377 	mov	dpl,a
   014B 08                  378 	inc	r0
   014C E2                  379 	movx	a,@r0
   014D 34 00               380 	addc	a,#0x00
   014F F5 83               381 	mov	dph,a
   0151 78r00               382 	mov	r0,#_realloc_PARM_2
   0153 E2                  383 	movx	a,@r0
   0154 F0                  384 	movx	@dptr,a
   0155 A3                  385 	inc	dptr
   0156 08                  386 	inc	r0
   0157 E2                  387 	movx	a,@r0
   0158 F0                  388 	movx	@dptr,a
                            389 ;	_realloc.c:116: ret = MEM(pnew);
   0159 78r07               390 	mov	r0,#_realloc_pnew_1_1
   015B 79r09               391 	mov	r1,#_realloc_ret_1_1
   015D E2                  392 	movx	a,@r0
   015E 24 04               393 	add	a,#0x04
   0160 F3                  394 	movx	@r1,a
   0161 08                  395 	inc	r0
   0162 E2                  396 	movx	a,@r0
   0163 34 00               397 	addc	a,#0x00
   0165 09                  398 	inc	r1
   0166 F3                  399 	movx	@r1,a
   0167 02s01rFB            400 	ljmp	00115$
   016A                     401 00104$:
                            402 ;	_realloc.c:120: ret = malloc(size - HEADER_SIZE);
   016A 78r00               403 	mov	r0,#_realloc_PARM_2
   016C E2                  404 	movx	a,@r0
   016D 24 FC               405 	add	a,#0xfc
   016F FA                  406 	mov	r2,a
   0170 08                  407 	inc	r0
   0171 E2                  408 	movx	a,@r0
   0172 34 FF               409 	addc	a,#0xff
   0174 FB                  410 	mov	r3,a
   0175 8A 82               411 	mov	dpl,r2
   0177 8B 83               412 	mov	dph,r3
   0179 12s00r00            413 	lcall	_malloc
   017C 78r09               414 	mov	r0,#_realloc_ret_1_1
   017E E5 82               415 	mov	a,dpl
   0180 F2                  416 	movx	@r0,a
   0181 08                  417 	inc	r0
   0182 E5 83               418 	mov	a,dph
   0184 F2                  419 	movx	@r0,a
                            420 ;	_realloc.c:121: if (ret)
   0185 78r09               421 	mov	r0,#_realloc_ret_1_1
   0187 E2                  422 	movx	a,@r0
   0188 F5 F0               423 	mov	b,a
   018A 08                  424 	inc	r0
   018B E2                  425 	movx	a,@r0
   018C 45 F0               426 	orl	a,b
   018E 60 6B               427 	jz	00115$
                            428 ;	_realloc.c:123: memcpy(ret, MEM(pthis), pthis->len - HEADER_SIZE);
   0190 78r09               429 	mov	r0,#_realloc_ret_1_1
   0192 E2                  430 	movx	a,@r0
   0193 FA                  431 	mov	r2,a
   0194 08                  432 	inc	r0
   0195 E2                  433 	movx	a,@r0
   0196 FB                  434 	mov	r3,a
   0197 7C 00               435 	mov	r4,#0x00
   0199 78r05               436 	mov	r0,#_realloc_pthis_1_1
   019B E2                  437 	movx	a,@r0
   019C 24 04               438 	add	a,#0x04
   019E FD                  439 	mov	r5,a
   019F 08                  440 	inc	r0
   01A0 E2                  441 	movx	a,@r0
   01A1 34 00               442 	addc	a,#0x00
   01A3 FE                  443 	mov	r6,a
   01A4 78r00               444 	mov	r0,#_memcpy_PARM_2
   01A6 ED                  445 	mov	a,r5
   01A7 F2                  446 	movx	@r0,a
   01A8 08                  447 	inc	r0
   01A9 EE                  448 	mov	a,r6
   01AA F2                  449 	movx	@r0,a
   01AB 08                  450 	inc	r0
   01AC E4                  451 	clr	a
   01AD F2                  452 	movx	@r0,a
   01AE 78r05               453 	mov	r0,#_realloc_pthis_1_1
   01B0 E2                  454 	movx	a,@r0
   01B1 24 02               455 	add	a,#0x02
   01B3 F5 82               456 	mov	dpl,a
   01B5 08                  457 	inc	r0
   01B6 E2                  458 	movx	a,@r0
   01B7 34 00               459 	addc	a,#0x00
   01B9 F5 83               460 	mov	dph,a
   01BB E0                  461 	movx	a,@dptr
   01BC FD                  462 	mov	r5,a
   01BD A3                  463 	inc	dptr
   01BE E0                  464 	movx	a,@dptr
   01BF FE                  465 	mov	r6,a
   01C0 78r00               466 	mov	r0,#_memcpy_PARM_3
   01C2 ED                  467 	mov	a,r5
   01C3 24 FC               468 	add	a,#0xfc
   01C5 F2                  469 	movx	@r0,a
   01C6 EE                  470 	mov	a,r6
   01C7 34 FF               471 	addc	a,#0xff
   01C9 08                  472 	inc	r0
   01CA F2                  473 	movx	@r0,a
   01CB 8A 82               474 	mov	dpl,r2
   01CD 8B 83               475 	mov	dph,r3
   01CF 8C F0               476 	mov	b,r4
   01D1 12s00r00            477 	lcall	_memcpy
                            478 ;	_realloc.c:124: free(p);
   01D4 78r02               479 	mov	r0,#_realloc_p_1_1
   01D6 E2                  480 	movx	a,@r0
   01D7 F5 82               481 	mov	dpl,a
   01D9 08                  482 	inc	r0
   01DA E2                  483 	movx	a,@r0
   01DB F5 83               484 	mov	dph,a
   01DD 08                  485 	inc	r0
   01DE E2                  486 	movx	a,@r0
   01DF F5 F0               487 	mov	b,a
   01E1 12s00r00            488 	lcall	_free
   01E4 80 15               489 	sjmp	00115$
   01E6                     490 00114$:
                            491 ;	_realloc.c:132: ret = malloc(size);
   01E6 78r00               492 	mov	r0,#_realloc_PARM_2
   01E8 E2                  493 	movx	a,@r0
   01E9 F5 82               494 	mov	dpl,a
   01EB 08                  495 	inc	r0
   01EC E2                  496 	movx	a,@r0
   01ED F5 83               497 	mov	dph,a
   01EF 12s00r00            498 	lcall	_malloc
   01F2 78r09               499 	mov	r0,#_realloc_ret_1_1
   01F4 E5 82               500 	mov	a,dpl
   01F6 F2                  501 	movx	@r0,a
   01F7 08                  502 	inc	r0
   01F8 E5 83               503 	mov	a,dph
   01FA F2                  504 	movx	@r0,a
   01FB                     505 00115$:
                            506 ;	_realloc.c:135: return ret;
   01FB 78r09               507 	mov	r0,#_realloc_ret_1_1
   01FD E2                  508 	movx	a,@r0
   01FE F5 82               509 	mov	dpl,a
   0200 08                  510 	inc	r0
   0201 E2                  511 	movx	a,@r0
   0202 F5 83               512 	mov	dph,a
   0204 22                  513 	ret
                            514 	.area CSEG    (CODE)
                            515 	.area CONST   (CODE)
                            516 	.area XINIT   (CODE)
                            517 	.area CABS    (ABS,CODE)
