                              1 ;--------------------------------------------------------
                              2 ; File Created by SDCC : free open source ANSI-C Compiler
                              3 ; Version 2.9.4 #5595 (Oct 23 2013) (Mac OS X ppc)
                              4 ; This file was generated Wed Oct 23 12:25:53 2013
                              5 ;--------------------------------------------------------
                              6 	.module atan2f
                              7 	.optsdcc -mmcs51 --model-large
                              8 	
                              9 ;--------------------------------------------------------
                             10 ; Public variables in this module
                             11 ;--------------------------------------------------------
                             12 	.globl _atan2f_PARM_2
                             13 	.globl _atan2f
                             14 ;--------------------------------------------------------
                             15 ; special function registers
                             16 ;--------------------------------------------------------
                             17 	.area RSEG    (ABS,DATA)
   0000                      18 	.org 0x0000
                             19 ;--------------------------------------------------------
                             20 ; special function bits
                             21 ;--------------------------------------------------------
                             22 	.area RSEG    (ABS,DATA)
   0000                      23 	.org 0x0000
                             24 ;--------------------------------------------------------
                             25 ; overlayable register banks
                             26 ;--------------------------------------------------------
                             27 	.area REG_BANK_0	(REL,OVR,DATA)
   0000                      28 	.ds 8
                             29 ;--------------------------------------------------------
                             30 ; internal ram data
                             31 ;--------------------------------------------------------
                             32 	.area DSEG    (DATA)
   0000                      33 _atan2f_sloc0_1_0:
   0000                      34 	.ds 4
   0004                      35 _atan2f_sloc1_1_0:
   0004                      36 	.ds 4
                             37 ;--------------------------------------------------------
                             38 ; overlayable items in internal ram 
                             39 ;--------------------------------------------------------
                             40 	.area OSEG    (OVR,DATA)
                             41 ;--------------------------------------------------------
                             42 ; indirectly addressable internal ram data
                             43 ;--------------------------------------------------------
                             44 	.area ISEG    (DATA)
                             45 ;--------------------------------------------------------
                             46 ; absolute internal ram data
                             47 ;--------------------------------------------------------
                             48 	.area IABS    (ABS,DATA)
                             49 	.area IABS    (ABS,DATA)
                             50 ;--------------------------------------------------------
                             51 ; bit data
                             52 ;--------------------------------------------------------
                             53 	.area BSEG    (BIT)
                             54 ;--------------------------------------------------------
                             55 ; paged external ram data
                             56 ;--------------------------------------------------------
                             57 	.area PSEG    (PAG,XDATA)
                             58 ;--------------------------------------------------------
                             59 ; external ram data
                             60 ;--------------------------------------------------------
                             61 	.area XSEG    (XDATA)
   0000                      62 _atan2f_PARM_2:
   0000                      63 	.ds 4
   0004                      64 _atan2f_x_1_1:
   0004                      65 	.ds 4
   0008                      66 _atan2f_r_1_1:
   0008                      67 	.ds 4
                             68 ;--------------------------------------------------------
                             69 ; absolute external ram data
                             70 ;--------------------------------------------------------
                             71 	.area XABS    (ABS,XDATA)
                             72 ;--------------------------------------------------------
                             73 ; external initialized ram data
                             74 ;--------------------------------------------------------
                             75 	.area XISEG   (XDATA)
                             76 	.area HOME    (CODE)
                             77 	.area GSINIT0 (CODE)
                             78 	.area GSINIT1 (CODE)
                             79 	.area GSINIT2 (CODE)
                             80 	.area GSINIT3 (CODE)
                             81 	.area GSINIT4 (CODE)
                             82 	.area GSINIT5 (CODE)
                             83 	.area GSINIT  (CODE)
                             84 	.area GSFINAL (CODE)
                             85 	.area CSEG    (CODE)
                             86 ;--------------------------------------------------------
                             87 ; global & static initialisations
                             88 ;--------------------------------------------------------
                             89 	.area HOME    (CODE)
                             90 	.area GSINIT  (CODE)
                             91 	.area GSFINAL (CODE)
                             92 	.area GSINIT  (CODE)
                             93 ;--------------------------------------------------------
                             94 ; Home
                             95 ;--------------------------------------------------------
                             96 	.area HOME    (CODE)
                             97 	.area HOME    (CODE)
                             98 ;--------------------------------------------------------
                             99 ; code
                            100 ;--------------------------------------------------------
                            101 	.area CSEG    (CODE)
                            102 ;------------------------------------------------------------
                            103 ;Allocation info for local variables in function 'atan2f'
                            104 ;------------------------------------------------------------
                            105 ;sloc0                     Allocated with name '_atan2f_sloc0_1_0'
                            106 ;sloc1                     Allocated with name '_atan2f_sloc1_1_0'
                            107 ;y                         Allocated with name '_atan2f_PARM_2'
                            108 ;x                         Allocated with name '_atan2f_x_1_1'
                            109 ;r                         Allocated with name '_atan2f_r_1_1'
                            110 ;------------------------------------------------------------
                            111 ;	atan2f.c:24: float atan2f(const float x, const float y)
                            112 ;	-----------------------------------------
                            113 ;	 function atan2f
                            114 ;	-----------------------------------------
   0000                     115 _atan2f:
                    0002    116 	ar2 = 0x02
                    0003    117 	ar3 = 0x03
                    0004    118 	ar4 = 0x04
                    0005    119 	ar5 = 0x05
                    0006    120 	ar6 = 0x06
                    0007    121 	ar7 = 0x07
                    0000    122 	ar0 = 0x00
                    0001    123 	ar1 = 0x01
   0000 AA 82               124 	mov	r2,dpl
   0002 AB 83               125 	mov	r3,dph
   0004 AC F0               126 	mov	r4,b
   0006 FD                  127 	mov	r5,a
   0007 90s00r04            128 	mov	dptr,#_atan2f_x_1_1
   000A EA                  129 	mov	a,r2
   000B F0                  130 	movx	@dptr,a
   000C A3                  131 	inc	dptr
   000D EB                  132 	mov	a,r3
   000E F0                  133 	movx	@dptr,a
   000F A3                  134 	inc	dptr
   0010 EC                  135 	mov	a,r4
   0011 F0                  136 	movx	@dptr,a
   0012 A3                  137 	inc	dptr
   0013 ED                  138 	mov	a,r5
   0014 F0                  139 	movx	@dptr,a
                            140 ;	atan2f.c:28: if ((x==0.0) && (y==0.0))
   0015 90s00r04            141 	mov	dptr,#_atan2f_x_1_1
   0018 E0                  142 	movx	a,@dptr
   0019 FA                  143 	mov	r2,a
   001A A3                  144 	inc	dptr
   001B E0                  145 	movx	a,@dptr
   001C FB                  146 	mov	r3,a
   001D A3                  147 	inc	dptr
   001E E0                  148 	movx	a,@dptr
   001F FC                  149 	mov	r4,a
   0020 A3                  150 	inc	dptr
   0021 E0                  151 	movx	a,@dptr
   0022 FD                  152 	mov	r5,a
   0023 EA                  153 	mov	a,r2
   0024 4B                  154 	orl	a,r3
   0025 4C                  155 	orl	a,r4
   0026 4D                  156 	orl	a,r5
   0027 70 24               157 	jnz	00102$
   0029 90s00r00            158 	mov	dptr,#_atan2f_PARM_2
   002C E0                  159 	movx	a,@dptr
   002D FE                  160 	mov	r6,a
   002E A3                  161 	inc	dptr
   002F E0                  162 	movx	a,@dptr
   0030 FF                  163 	mov	r7,a
   0031 A3                  164 	inc	dptr
   0032 E0                  165 	movx	a,@dptr
   0033 F8                  166 	mov	r0,a
   0034 A3                  167 	inc	dptr
   0035 E0                  168 	movx	a,@dptr
   0036 F9                  169 	mov	r1,a
   0037 EE                  170 	mov	a,r6
   0038 4F                  171 	orl	a,r7
   0039 48                  172 	orl	a,r0
   003A 49                  173 	orl	a,r1
   003B 70 10               174 	jnz	00102$
                            175 ;	atan2f.c:30: errno=EDOM;
   003D 90s00r00            176 	mov	dptr,#_errno
   0040 74 21               177 	mov	a,#0x21
   0042 F0                  178 	movx	@dptr,a
   0043 E4                  179 	clr	a
   0044 A3                  180 	inc	dptr
   0045 F0                  181 	movx	@dptr,a
                            182 ;	atan2f.c:31: return 0.0;
   0046 90 00 00            183 	mov	dptr,#(0x00&0x00ff)
   0049 E4                  184 	clr	a
   004A F5 F0               185 	mov	b,a
   004C 22                  186 	ret
   004D                     187 00102$:
                            188 ;	atan2f.c:34: if(fabsf(y)>=fabsf(x))
   004D 90s00r00            189 	mov	dptr,#_atan2f_PARM_2
   0050 E0                  190 	movx	a,@dptr
   0051 F5*00               191 	mov	_atan2f_sloc0_1_0,a
   0053 A3                  192 	inc	dptr
   0054 E0                  193 	movx	a,@dptr
   0055 F5*01               194 	mov	(_atan2f_sloc0_1_0 + 1),a
   0057 A3                  195 	inc	dptr
   0058 E0                  196 	movx	a,@dptr
   0059 F5*02               197 	mov	(_atan2f_sloc0_1_0 + 2),a
   005B A3                  198 	inc	dptr
   005C E0                  199 	movx	a,@dptr
   005D F5*03               200 	mov	(_atan2f_sloc0_1_0 + 3),a
   005F 85*00 82            201 	mov	dpl,_atan2f_sloc0_1_0
   0062 85*01 83            202 	mov	dph,(_atan2f_sloc0_1_0 + 1)
   0065 85*02 F0            203 	mov	b,(_atan2f_sloc0_1_0 + 2)
   0068 C0 02               204 	push	ar2
   006A C0 03               205 	push	ar3
   006C C0 04               206 	push	ar4
   006E C0 05               207 	push	ar5
   0070 12s00r00            208 	lcall	_fabsf
   0073 85 82*04            209 	mov	_atan2f_sloc1_1_0,dpl
   0076 85 83*05            210 	mov	(_atan2f_sloc1_1_0 + 1),dph
   0079 85 F0*06            211 	mov	(_atan2f_sloc1_1_0 + 2),b
   007C F5*07               212 	mov	(_atan2f_sloc1_1_0 + 3),a
   007E D0 05               213 	pop	ar5
   0080 D0 04               214 	pop	ar4
   0082 D0 03               215 	pop	ar3
   0084 D0 02               216 	pop	ar2
   0086 8A 82               217 	mov	dpl,r2
   0088 8B 83               218 	mov	dph,r3
   008A 8C F0               219 	mov	b,r4
   008C ED                  220 	mov	a,r5
   008D C0 02               221 	push	ar2
   008F C0 03               222 	push	ar3
   0091 C0 04               223 	push	ar4
   0093 C0 05               224 	push	ar5
   0095 12s00r00            225 	lcall	_fabsf
   0098 AE 82               226 	mov	r6,dpl
   009A AF 83               227 	mov	r7,dph
   009C A8 F0               228 	mov	r0,b
   009E F9                  229 	mov	r1,a
   009F C0 06               230 	push	ar6
   00A1 C0 07               231 	push	ar7
   00A3 C0 00               232 	push	ar0
   00A5 C0 01               233 	push	ar1
   00A7 85*04 82            234 	mov	dpl,_atan2f_sloc1_1_0
   00AA 85*05 83            235 	mov	dph,(_atan2f_sloc1_1_0 + 1)
   00AD 85*06 F0            236 	mov	b,(_atan2f_sloc1_1_0 + 2)
   00B0 E5*07               237 	mov	a,(_atan2f_sloc1_1_0 + 3)
   00B2 12s00r00            238 	lcall	___fslt
   00B5 AE 82               239 	mov	r6,dpl
   00B7 E5 81               240 	mov	a,sp
   00B9 24 FC               241 	add	a,#0xfc
   00BB F5 81               242 	mov	sp,a
   00BD D0 05               243 	pop	ar5
   00BF D0 04               244 	pop	ar4
   00C1 D0 03               245 	pop	ar3
   00C3 D0 02               246 	pop	ar2
   00C5 EE                  247 	mov	a,r6
   00C6 60 03               248 	jz	00123$
   00C8 02s01rB0            249 	ljmp	00107$
   00CB                     250 00123$:
                            251 ;	atan2f.c:36: r=atanf(x/y);
   00CB C0 02               252 	push	ar2
   00CD C0 03               253 	push	ar3
   00CF C0 04               254 	push	ar4
   00D1 C0 05               255 	push	ar5
   00D3 C0*00               256 	push	_atan2f_sloc0_1_0
   00D5 C0*01               257 	push	(_atan2f_sloc0_1_0 + 1)
   00D7 C0*02               258 	push	(_atan2f_sloc0_1_0 + 2)
   00D9 C0*03               259 	push	(_atan2f_sloc0_1_0 + 3)
   00DB 8A 82               260 	mov	dpl,r2
   00DD 8B 83               261 	mov	dph,r3
   00DF 8C F0               262 	mov	b,r4
   00E1 ED                  263 	mov	a,r5
   00E2 12s00r00            264 	lcall	___fsdiv
   00E5 AE 82               265 	mov	r6,dpl
   00E7 AF 83               266 	mov	r7,dph
   00E9 A8 F0               267 	mov	r0,b
   00EB F9                  268 	mov	r1,a
   00EC E5 81               269 	mov	a,sp
   00EE 24 FC               270 	add	a,#0xfc
   00F0 F5 81               271 	mov	sp,a
   00F2 8E 82               272 	mov	dpl,r6
   00F4 8F 83               273 	mov	dph,r7
   00F6 88 F0               274 	mov	b,r0
   00F8 E9                  275 	mov	a,r1
   00F9 12s00r00            276 	lcall	_atanf
   00FC 85 82*04            277 	mov	_atan2f_sloc1_1_0,dpl
   00FF 85 83*05            278 	mov	(_atan2f_sloc1_1_0 + 1),dph
   0102 85 F0*06            279 	mov	(_atan2f_sloc1_1_0 + 2),b
   0105 F5*07               280 	mov	(_atan2f_sloc1_1_0 + 3),a
   0107 90s00r08            281 	mov	dptr,#_atan2f_r_1_1
   010A E5*04               282 	mov	a,_atan2f_sloc1_1_0
   010C F0                  283 	movx	@dptr,a
   010D A3                  284 	inc	dptr
   010E E5*05               285 	mov	a,(_atan2f_sloc1_1_0 + 1)
   0110 F0                  286 	movx	@dptr,a
   0111 A3                  287 	inc	dptr
   0112 E5*06               288 	mov	a,(_atan2f_sloc1_1_0 + 2)
   0114 F0                  289 	movx	@dptr,a
   0115 A3                  290 	inc	dptr
   0116 E5*07               291 	mov	a,(_atan2f_sloc1_1_0 + 3)
   0118 F0                  292 	movx	@dptr,a
                            293 ;	atan2f.c:37: if(y<0.0) r+=(x>=0?PI:-PI);
   0119 E4                  294 	clr	a
   011A C0 E0               295 	push	acc
   011C C0 E0               296 	push	acc
   011E C0 E0               297 	push	acc
   0120 C0 E0               298 	push	acc
   0122 85*00 82            299 	mov	dpl,_atan2f_sloc0_1_0
   0125 85*01 83            300 	mov	dph,(_atan2f_sloc0_1_0 + 1)
   0128 85*02 F0            301 	mov	b,(_atan2f_sloc0_1_0 + 2)
   012B E5*03               302 	mov	a,(_atan2f_sloc0_1_0 + 3)
   012D 12s00r00            303 	lcall	___fslt
   0130 AE 82               304 	mov	r6,dpl
   0132 E5 81               305 	mov	a,sp
   0134 24 FC               306 	add	a,#0xfc
   0136 F5 81               307 	mov	sp,a
   0138 D0 05               308 	pop	ar5
   013A D0 04               309 	pop	ar4
   013C D0 03               310 	pop	ar3
   013E D0 02               311 	pop	ar2
   0140 EE                  312 	mov	a,r6
   0141 70 03               313 	jnz	00124$
   0143 02s02r65            314 	ljmp	00108$
   0146                     315 00124$:
   0146 E4                  316 	clr	a
   0147 C0 E0               317 	push	acc
   0149 C0 E0               318 	push	acc
   014B C0 E0               319 	push	acc
   014D C0 E0               320 	push	acc
   014F 8A 82               321 	mov	dpl,r2
   0151 8B 83               322 	mov	dph,r3
   0153 8C F0               323 	mov	b,r4
   0155 ED                  324 	mov	a,r5
   0156 12s00r00            325 	lcall	___fslt
   0159 AE 82               326 	mov	r6,dpl
   015B E5 81               327 	mov	a,sp
   015D 24 FC               328 	add	a,#0xfc
   015F F5 81               329 	mov	sp,a
   0161 EE                  330 	mov	a,r6
   0162 B4 01 00            331 	cjne	a,#0x01,00125$
   0165                     332 00125$:
   0165 E4                  333 	clr	a
   0166 33                  334 	rlc	a
   0167 FE                  335 	mov	r6,a
   0168 60 0A               336 	jz	00111$
   016A 7E DB               337 	mov	r6,#0xDB
   016C 7F 0F               338 	mov	r7,#0x0F
   016E 78 49               339 	mov	r0,#0x49
   0170 79 40               340 	mov	r1,#0x40
   0172 80 08               341 	sjmp	00112$
   0174                     342 00111$:
   0174 7E DB               343 	mov	r6,#0xDB
   0176 7F 0F               344 	mov	r7,#0x0F
   0178 78 49               345 	mov	r0,#0x49
   017A 79 C0               346 	mov	r1,#0xC0
   017C                     347 00112$:
   017C C0 06               348 	push	ar6
   017E C0 07               349 	push	ar7
   0180 C0 00               350 	push	ar0
   0182 C0 01               351 	push	ar1
   0184 85*04 82            352 	mov	dpl,_atan2f_sloc1_1_0
   0187 85*05 83            353 	mov	dph,(_atan2f_sloc1_1_0 + 1)
   018A 85*06 F0            354 	mov	b,(_atan2f_sloc1_1_0 + 2)
   018D E5*07               355 	mov	a,(_atan2f_sloc1_1_0 + 3)
   018F 12s00r00            356 	lcall	___fsadd
   0192 AE 82               357 	mov	r6,dpl
   0194 AF 83               358 	mov	r7,dph
   0196 A8 F0               359 	mov	r0,b
   0198 F9                  360 	mov	r1,a
   0199 E5 81               361 	mov	a,sp
   019B 24 FC               362 	add	a,#0xfc
   019D F5 81               363 	mov	sp,a
   019F 90s00r08            364 	mov	dptr,#_atan2f_r_1_1
   01A2 EE                  365 	mov	a,r6
   01A3 F0                  366 	movx	@dptr,a
   01A4 A3                  367 	inc	dptr
   01A5 EF                  368 	mov	a,r7
   01A6 F0                  369 	movx	@dptr,a
   01A7 A3                  370 	inc	dptr
   01A8 E8                  371 	mov	a,r0
   01A9 F0                  372 	movx	@dptr,a
   01AA A3                  373 	inc	dptr
   01AB E9                  374 	mov	a,r1
   01AC F0                  375 	movx	@dptr,a
   01AD 02s02r65            376 	ljmp	00108$
   01B0                     377 00107$:
                            378 ;	atan2f.c:41: r=-atanf(y/x);
   01B0 C0 02               379 	push	ar2
   01B2 C0 03               380 	push	ar3
   01B4 C0 04               381 	push	ar4
   01B6 C0 05               382 	push	ar5
   01B8 C0 02               383 	push	ar2
   01BA C0 03               384 	push	ar3
   01BC C0 04               385 	push	ar4
   01BE C0 05               386 	push	ar5
   01C0 85*00 82            387 	mov	dpl,_atan2f_sloc0_1_0
   01C3 85*01 83            388 	mov	dph,(_atan2f_sloc0_1_0 + 1)
   01C6 85*02 F0            389 	mov	b,(_atan2f_sloc0_1_0 + 2)
   01C9 E5*03               390 	mov	a,(_atan2f_sloc0_1_0 + 3)
   01CB 12s00r00            391 	lcall	___fsdiv
   01CE AE 82               392 	mov	r6,dpl
   01D0 AF 83               393 	mov	r7,dph
   01D2 A8 F0               394 	mov	r0,b
   01D4 F9                  395 	mov	r1,a
   01D5 E5 81               396 	mov	a,sp
   01D7 24 FC               397 	add	a,#0xfc
   01D9 F5 81               398 	mov	sp,a
   01DB 8E 82               399 	mov	dpl,r6
   01DD 8F 83               400 	mov	dph,r7
   01DF 88 F0               401 	mov	b,r0
   01E1 E9                  402 	mov	a,r1
   01E2 12s00r00            403 	lcall	_atanf
   01E5 AE 82               404 	mov	r6,dpl
   01E7 AF 83               405 	mov	r7,dph
   01E9 A8 F0               406 	mov	r0,b
   01EB F9                  407 	mov	r1,a
   01EC D0 05               408 	pop	ar5
   01EE D0 04               409 	pop	ar4
   01F0 D0 03               410 	pop	ar3
   01F2 D0 02               411 	pop	ar2
   01F4 E9                  412 	mov	a,r1
   01F5 B2 E7               413 	cpl	acc.7
   01F7 F9                  414 	mov	r1,a
                            415 ;	atan2f.c:42: r+=(x<0.0?-HALF_PI:HALF_PI);
   01F8 C0 06               416 	push	ar6
   01FA C0 07               417 	push	ar7
   01FC C0 00               418 	push	ar0
   01FE C0 01               419 	push	ar1
   0200 E4                  420 	clr	a
   0201 C0 E0               421 	push	acc
   0203 C0 E0               422 	push	acc
   0205 C0 E0               423 	push	acc
   0207 C0 E0               424 	push	acc
   0209 8A 82               425 	mov	dpl,r2
   020B 8B 83               426 	mov	dph,r3
   020D 8C F0               427 	mov	b,r4
   020F ED                  428 	mov	a,r5
   0210 12s00r00            429 	lcall	___fslt
   0213 AA 82               430 	mov	r2,dpl
   0215 E5 81               431 	mov	a,sp
   0217 24 FC               432 	add	a,#0xfc
   0219 F5 81               433 	mov	sp,a
   021B D0 01               434 	pop	ar1
   021D D0 00               435 	pop	ar0
   021F D0 07               436 	pop	ar7
   0221 D0 06               437 	pop	ar6
   0223 EA                  438 	mov	a,r2
   0224 60 0A               439 	jz	00113$
   0226 7A DB               440 	mov	r2,#0xDB
   0228 7B 0F               441 	mov	r3,#0x0F
   022A 7C C9               442 	mov	r4,#0xC9
   022C 7D BF               443 	mov	r5,#0xBF
   022E 80 08               444 	sjmp	00114$
   0230                     445 00113$:
   0230 7A DB               446 	mov	r2,#0xDB
   0232 7B 0F               447 	mov	r3,#0x0F
   0234 7C C9               448 	mov	r4,#0xC9
   0236 7D 3F               449 	mov	r5,#0x3F
   0238                     450 00114$:
   0238 C0 02               451 	push	ar2
   023A C0 03               452 	push	ar3
   023C C0 04               453 	push	ar4
   023E C0 05               454 	push	ar5
   0240 8E 82               455 	mov	dpl,r6
   0242 8F 83               456 	mov	dph,r7
   0244 88 F0               457 	mov	b,r0
   0246 E9                  458 	mov	a,r1
   0247 12s00r00            459 	lcall	___fsadd
   024A AA 82               460 	mov	r2,dpl
   024C AB 83               461 	mov	r3,dph
   024E AC F0               462 	mov	r4,b
   0250 FD                  463 	mov	r5,a
   0251 E5 81               464 	mov	a,sp
   0253 24 FC               465 	add	a,#0xfc
   0255 F5 81               466 	mov	sp,a
   0257 90s00r08            467 	mov	dptr,#_atan2f_r_1_1
   025A EA                  468 	mov	a,r2
   025B F0                  469 	movx	@dptr,a
   025C A3                  470 	inc	dptr
   025D EB                  471 	mov	a,r3
   025E F0                  472 	movx	@dptr,a
   025F A3                  473 	inc	dptr
   0260 EC                  474 	mov	a,r4
   0261 F0                  475 	movx	@dptr,a
   0262 A3                  476 	inc	dptr
   0263 ED                  477 	mov	a,r5
   0264 F0                  478 	movx	@dptr,a
   0265                     479 00108$:
                            480 ;	atan2f.c:44: return r;
   0265 90s00r08            481 	mov	dptr,#_atan2f_r_1_1
   0268 E0                  482 	movx	a,@dptr
   0269 FA                  483 	mov	r2,a
   026A A3                  484 	inc	dptr
   026B E0                  485 	movx	a,@dptr
   026C FB                  486 	mov	r3,a
   026D A3                  487 	inc	dptr
   026E E0                  488 	movx	a,@dptr
   026F FC                  489 	mov	r4,a
   0270 A3                  490 	inc	dptr
   0271 E0                  491 	movx	a,@dptr
   0272 8A 82               492 	mov	dpl,r2
   0274 8B 83               493 	mov	dph,r3
   0276 8C F0               494 	mov	b,r4
   0278 22                  495 	ret
                            496 	.area CSEG    (CODE)
                            497 	.area CONST   (CODE)
                            498 	.area XINIT   (CODE)
                            499 	.area CABS    (ABS,CODE)
