                              1 ;--------------------------------------------------------
                              2 ; File Created by SDCC : free open source ANSI-C Compiler
                              3 ; Version 2.9.4 #5595 (Oct 23 2013) (Mac OS X ppc)
                              4 ; This file was generated Wed Oct 23 12:26:07 2013
                              5 ;--------------------------------------------------------
                              6 	.module _fsdiv
                              7 	.optsdcc -mz80
                              8 	
                              9 ;--------------------------------------------------------
                             10 ; Public variables in this module
                             11 ;--------------------------------------------------------
                             12 	.globl ___fsdiv
                             13 ;--------------------------------------------------------
                             14 ; special function registers
                             15 ;--------------------------------------------------------
                             16 ;--------------------------------------------------------
                             17 ;  ram data
                             18 ;--------------------------------------------------------
                             19 	.area _DATA
                             20 ;--------------------------------------------------------
                             21 ; overlayable items in  ram 
                             22 ;--------------------------------------------------------
                             23 	.area _OVERLAY
                             24 ;--------------------------------------------------------
                             25 ; external initialized ram data
                             26 ;--------------------------------------------------------
                             27 ;--------------------------------------------------------
                             28 ; global & static initialisations
                             29 ;--------------------------------------------------------
                             30 	.area _HOME
                             31 	.area _GSINIT
                             32 	.area _GSFINAL
                             33 	.area _GSINIT
                             34 ;--------------------------------------------------------
                             35 ; Home
                             36 ;--------------------------------------------------------
                             37 	.area _HOME
                             38 	.area _HOME
                             39 ;--------------------------------------------------------
                             40 ; code
                             41 ;--------------------------------------------------------
                             42 	.area _CODE
                             43 ;../_fsdiv.c:264: float __fsdiv (float a1, float a2)
                             44 ;	---------------------------------
                             45 ; Function __fsdiv
                             46 ; ---------------------------------
   0000                      47 ___fsdiv_start::
   0000                      48 ___fsdiv:
   0000 DD E5                49 	push	ix
   0002 DD 21 00 00          50 	ld	ix,#0
   0006 DD 39                51 	add	ix,sp
   0008 21 DF FF             52 	ld	hl,#-33
   000B 39                   53 	add	hl,sp
   000C F9                   54 	ld	sp,hl
                             55 ;../_fsdiv.c:273: fl1.f = a1;
   000D 21 1D 00             56 	ld	hl,#0x001D
   0010 39                   57 	add	hl,sp
   0011 DD 7E 04             58 	ld	a,4 (ix)
   0014 77                   59 	ld	(hl),a
   0015 23                   60 	inc	hl
   0016 DD 7E 05             61 	ld	a,5 (ix)
   0019 77                   62 	ld	(hl),a
   001A 23                   63 	inc	hl
   001B DD 7E 06             64 	ld	a,6 (ix)
   001E 77                   65 	ld	(hl),a
   001F 23                   66 	inc	hl
   0020 DD 7E 07             67 	ld	a,7 (ix)
   0023 77                   68 	ld	(hl),a
                             69 ;../_fsdiv.c:274: fl2.f = a2;
   0024 21 19 00             70 	ld	hl,#0x0019
   0027 39                   71 	add	hl,sp
   0028 DD 7E 08             72 	ld	a,8 (ix)
   002B 77                   73 	ld	(hl),a
   002C 23                   74 	inc	hl
   002D DD 7E 09             75 	ld	a,9 (ix)
   0030 77                   76 	ld	(hl),a
   0031 23                   77 	inc	hl
   0032 DD 7E 0A             78 	ld	a,10 (ix)
   0035 77                   79 	ld	(hl),a
   0036 23                   80 	inc	hl
   0037 DD 7E 0B             81 	ld	a,11 (ix)
   003A 77                   82 	ld	(hl),a
                             83 ;../_fsdiv.c:277: exp = EXP (fl1.l) ;
   003B 21 1D 00             84 	ld	hl,#0x001D
   003E 39                   85 	add	hl,sp
   003F 4E                   86 	ld	c,(hl)
   0040 23                   87 	inc	hl
   0041 46                   88 	ld	b,(hl)
   0042 23                   89 	inc	hl
   0043 5E                   90 	ld	e,(hl)
   0044 23                   91 	inc	hl
   0045 56                   92 	ld	d,(hl)
   0046 3E 17                93 	ld	a,#0x17
   0048 F5                   94 	push	af
   0049 33                   95 	inc	sp
   004A D5                   96 	push	de
   004B C5                   97 	push	bc
   004C CDr00s00             98 	call	__rrulong_rrx_s
   004F F1                   99 	pop	af
   0050 F1                  100 	pop	af
   0051 33                  101 	inc	sp
   0052 4D                  102 	ld	c,l
   0053 06 00               103 	ld	b,#0x00
   0055 DD 71 E6            104 	ld	-26 (ix),c
   0058 DD 70 E7            105 	ld	-25 (ix),b
                            106 ;../_fsdiv.c:278: exp -= EXP (fl2.l);
   005B 21 19 00            107 	ld	hl,#0x0019
   005E 39                  108 	add	hl,sp
   005F 4E                  109 	ld	c,(hl)
   0060 23                  110 	inc	hl
   0061 46                  111 	ld	b,(hl)
   0062 23                  112 	inc	hl
   0063 5E                  113 	ld	e,(hl)
   0064 23                  114 	inc	hl
   0065 56                  115 	ld	d,(hl)
   0066 3E 17               116 	ld	a,#0x17
   0068 F5                  117 	push	af
   0069 33                  118 	inc	sp
   006A D5                  119 	push	de
   006B C5                  120 	push	bc
   006C CDr00s00            121 	call	__rrulong_rrx_s
   006F F1                  122 	pop	af
   0070 F1                  123 	pop	af
   0071 33                  124 	inc	sp
   0072 DD 75 E1            125 	ld	-31 (ix),l
   0075 DD 36 E2 00         126 	ld	-30 (ix),#0x00
   0079 DD 36 E3 00         127 	ld	-29 (ix),#0x00
   007D DD 36 E4 00         128 	ld	-28 (ix),#0x00
   0081 DD 4E E6            129 	ld	c,-26 (ix)
   0084 DD 46 E7            130 	ld	b,-25 (ix)
   0087 DD 7E E7            131 	ld	a,-25 (ix)
   008A 17                  132 	rla	
   008B 9F                  133 	sbc	a,a
   008C 5F                  134 	ld	e,a
   008D 57                  135 	ld	d,a
   008E 79                  136 	ld	a,c
   008F DD 96 E1            137 	sub	a,-31 (ix)
   0092 4F                  138 	ld	c,a
   0093 78                  139 	ld	a,b
   0094 DD 9E E2            140 	sbc	a,-30 (ix)
   0097 47                  141 	ld	b,a
   0098 7B                  142 	ld	a,e
   0099 DD 9E E3            143 	sbc	a,-29 (ix)
   009C 7A                  144 	ld	a,d
   009D DD 9E E4            145 	sbc	a,-28 (ix)
   00A0 DD 71 E6            146 	ld	-26 (ix),c
   00A3 DD 70 E7            147 	ld	-25 (ix),b
                            148 ;../_fsdiv.c:279: exp += EXCESS;
   00A6 DD 7E E6            149 	ld	a,-26 (ix)
   00A9 C6 7E               150 	add	a,#0x7E
   00AB DD 77 E6            151 	ld	-26 (ix),a
   00AE DD 7E E7            152 	ld	a,-25 (ix)
   00B1 CE 00               153 	adc	a,#0x00
   00B3 DD 77 E7            154 	ld	-25 (ix),a
                            155 ;../_fsdiv.c:282: sign = SIGN (fl1.l) ^ SIGN (fl2.l);
   00B6 21 1D 00            156 	ld	hl,#0x001D
   00B9 39                  157 	add	hl,sp
   00BA 4E                  158 	ld	c,(hl)
   00BB 23                  159 	inc	hl
   00BC 46                  160 	ld	b,(hl)
   00BD 23                  161 	inc	hl
   00BE 5E                  162 	ld	e,(hl)
   00BF 23                  163 	inc	hl
   00C0 56                  164 	ld	d,(hl)
   00C1 7A                  165 	ld	a,d
   00C2 CB 07               166 	rlc	a
   00C4 E6 01               167 	and	a,#0x01
   00C6 DD 77 E1            168 	ld	-31 (ix),a
   00C9 21 19 00            169 	ld	hl,#0x0019
   00CC 39                  170 	add	hl,sp
   00CD 46                  171 	ld	b,(hl)
   00CE 23                  172 	inc	hl
   00CF 5E                  173 	ld	e,(hl)
   00D0 23                  174 	inc	hl
   00D1 56                  175 	ld	d,(hl)
   00D2 23                  176 	inc	hl
   00D3 4E                  177 	ld	c,(hl)
   00D4 79                  178 	ld	a,c
   00D5 CB 07               179 	rlc	a
   00D7 E6 01               180 	and	a,#0x01
   00D9 DD AE E1            181 	xor	a,-31 (ix)
   00DC DD 77 E5            182 	ld	-27 (ix),a
                            183 ;../_fsdiv.c:285: if (!fl2.l)
   00DF 21 19 00            184 	ld	hl,#0x0019
   00E2 39                  185 	add	hl,sp
   00E3 46                  186 	ld	b,(hl)
   00E4 23                  187 	inc	hl
   00E5 5E                  188 	ld	e,(hl)
   00E6 23                  189 	inc	hl
   00E7 56                  190 	ld	d,(hl)
   00E8 23                  191 	inc	hl
   00E9 4E                  192 	ld	c,(hl)
   00EA 78                  193 	ld	a,b
   00EB B3                  194 	or	a,e
   00EC B2                  195 	or	a,d
   00ED B1                  196 	or	a,c
   00EE 20 1F               197 	jr	NZ,00102$
                            198 ;../_fsdiv.c:287: fl2.l = 0x7FC00000;
   00F0 21 19 00            199 	ld	hl,#0x0019
   00F3 39                  200 	add	hl,sp
   00F4 36 00               201 	ld	(hl),#0x00
   00F6 23                  202 	inc	hl
   00F7 36 00               203 	ld	(hl),#0x00
   00F9 23                  204 	inc	hl
   00FA 36 C0               205 	ld	(hl),#0xC0
   00FC 23                  206 	inc	hl
   00FD 36 7F               207 	ld	(hl),#0x7F
                            208 ;../_fsdiv.c:288: return (fl2.f);
   00FF 21 19 00            209 	ld	hl,#0x0019
   0102 39                  210 	add	hl,sp
   0103 4E                  211 	ld	c,(hl)
   0104 23                  212 	inc	hl
   0105 46                  213 	ld	b,(hl)
   0106 23                  214 	inc	hl
   0107 5E                  215 	ld	e,(hl)
   0108 23                  216 	inc	hl
   0109 56                  217 	ld	d,(hl)
   010A 69                  218 	ld	l,c
   010B 60                  219 	ld	h,b
   010C C3rE0s03            220 	jp	00118$
   010F                     221 00102$:
                            222 ;../_fsdiv.c:292: if (!fl1.l)
   010F 21 1D 00            223 	ld	hl,#0x001D
   0112 39                  224 	add	hl,sp
   0113 4E                  225 	ld	c,(hl)
   0114 23                  226 	inc	hl
   0115 46                  227 	ld	b,(hl)
   0116 23                  228 	inc	hl
   0117 5E                  229 	ld	e,(hl)
   0118 23                  230 	inc	hl
   0119 56                  231 	ld	d,(hl)
   011A 79                  232 	ld	a,c
   011B B0                  233 	or	a,b
   011C B3                  234 	or	a,e
   011D B2                  235 	or	a,d
   011E 20 08               236 	jr	NZ,00104$
                            237 ;../_fsdiv.c:293: return (0);
   0120 21 00 00            238 	ld	hl,#0x0000
   0123 5D                  239 	ld	e,l
   0124 54                  240 	ld	d,h
   0125 C3rE0s03            241 	jp	00118$
   0128                     242 00104$:
                            243 ;../_fsdiv.c:296: mant1 = MANT (fl1.l);
   0128 21 1D 00            244 	ld	hl,#0x001D
   012B 39                  245 	add	hl,sp
   012C 4E                  246 	ld	c,(hl)
   012D 23                  247 	inc	hl
   012E 46                  248 	ld	b,(hl)
   012F 23                  249 	inc	hl
   0130 5E                  250 	ld	e,(hl)
   0131 23                  251 	inc	hl
   0132 7B                  252 	ld	a,e
   0133 E6 7F               253 	and	a,#0x7F
   0135 5F                  254 	ld	e,a
   0136 16 00               255 	ld	d,#0x00
   0138 DD 71 EC            256 	ld	-20 (ix),c
   013B DD 70 ED            257 	ld	-19 (ix),b
   013E 7B                  258 	ld	a,e
   013F F6 80               259 	or	a,#0x80
   0141 DD 77 EE            260 	ld	-18 (ix),a
   0144 DD 72 EF            261 	ld	-17 (ix),d
                            262 ;../_fsdiv.c:297: mant2 = MANT (fl2.l);
   0147 21 19 00            263 	ld	hl,#0x0019
   014A 39                  264 	add	hl,sp
   014B 4E                  265 	ld	c,(hl)
   014C 23                  266 	inc	hl
   014D 46                  267 	ld	b,(hl)
   014E 23                  268 	inc	hl
   014F 5E                  269 	ld	e,(hl)
   0150 23                  270 	inc	hl
   0151 7B                  271 	ld	a,e
   0152 E6 7F               272 	and	a,#0x7F
   0154 5F                  273 	ld	e,a
   0155 16 00               274 	ld	d,#0x00
   0157 DD 71 E8            275 	ld	-24 (ix),c
   015A DD 70 E9            276 	ld	-23 (ix),b
   015D 7B                  277 	ld	a,e
   015E F6 80               278 	or	a,#0x80
   0160 DD 77 EA            279 	ld	-22 (ix),a
   0163 DD 72 EB            280 	ld	-21 (ix),d
                            281 ;../_fsdiv.c:300: if (mant1 < mant2)
   0166 DD 7E EC            282 	ld	a,-20 (ix)
   0169 DD 96 E8            283 	sub	a,-24 (ix)
   016C DD 7E ED            284 	ld	a,-19 (ix)
   016F DD 9E E9            285 	sbc	a,-23 (ix)
   0172 DD 7E EE            286 	ld	a,-18 (ix)
   0175 DD 9E EA            287 	sbc	a,-22 (ix)
   0178 DD 7E EF            288 	ld	a,-17 (ix)
   017B DD 9E EB            289 	sbc	a,-21 (ix)
   017E F2rB3s01            290 	jp	P,00106$
                            291 ;../_fsdiv.c:302: mant1 <<= 1;
   0181 3E 01               292 	ld	a,#0x01
   0183 F5                  293 	push	af
   0184 33                  294 	inc	sp
   0185 DD 6E EE            295 	ld	l,-18 (ix)
   0188 DD 66 EF            296 	ld	h,-17 (ix)
   018B E5                  297 	push	hl
   018C DD 6E EC            298 	ld	l,-20 (ix)
   018F DD 66 ED            299 	ld	h,-19 (ix)
   0192 E5                  300 	push	hl
   0193 CDr00s00            301 	call	__rlslong_rrx_s
   0196 F1                  302 	pop	af
   0197 F1                  303 	pop	af
   0198 33                  304 	inc	sp
   0199 44                  305 	ld	b,h
   019A DD 75 EC            306 	ld	-20 (ix),l
   019D DD 70 ED            307 	ld	-19 (ix),b
   01A0 DD 73 EE            308 	ld	-18 (ix),e
   01A3 DD 72 EF            309 	ld	-17 (ix),d
                            310 ;../_fsdiv.c:303: exp--;
   01A6 DD 6E E6            311 	ld	l,-26 (ix)
   01A9 DD 66 E7            312 	ld	h,-25 (ix)
   01AC 2B                  313 	dec	hl
   01AD DD 75 E6            314 	ld	-26 (ix),l
   01B0 DD 74 E7            315 	ld	-25 (ix),h
   01B3                     316 00106$:
                            317 ;../_fsdiv.c:307: mask = 0x1000000;
   01B3 DD 36 F0 00         318 	ld	-16 (ix),#0x00
   01B7 DD 36 F1 00         319 	ld	-15 (ix),#0x00
   01BB DD 36 F2 00         320 	ld	-14 (ix),#0x00
   01BF DD 36 F3 01         321 	ld	-13 (ix),#0x01
                            322 ;../_fsdiv.c:308: result = 0;
   01C3 AF                  323 	xor	a,a
   01C4 DD 77 F4            324 	ld	-12 (ix),a
   01C7 DD 77 F5            325 	ld	-11 (ix),a
   01CA DD 77 F6            326 	ld	-10 (ix),a
   01CD DD 77 F7            327 	ld	-9 (ix),a
                            328 ;../_fsdiv.c:309: while (mask)
   01D0                     329 00109$:
   01D0 DD 7E F0            330 	ld	a,-16 (ix)
   01D3 DD B6 F1            331 	or	a,-15 (ix)
   01D6 DD B6 F2            332 	or	a,-14 (ix)
   01D9 DD B6 F3            333 	or	a,-13 (ix)
   01DC CAr97s02            334 	jp	Z,00111$
                            335 ;../_fsdiv.c:311: if (mant1 >= mant2)
   01DF DD 7E EC            336 	ld	a,-20 (ix)
   01E2 DD 96 E8            337 	sub	a,-24 (ix)
   01E5 DD 7E ED            338 	ld	a,-19 (ix)
   01E8 DD 9E E9            339 	sbc	a,-23 (ix)
   01EB DD 7E EE            340 	ld	a,-18 (ix)
   01EE DD 9E EA            341 	sbc	a,-22 (ix)
   01F1 DD 7E EF            342 	ld	a,-17 (ix)
   01F4 DD 9E EB            343 	sbc	a,-21 (ix)
   01F7 FAr4As02            344 	jp	M,00108$
                            345 ;../_fsdiv.c:313: result |= mask;
   01FA DD 4E F4            346 	ld	c,-12 (ix)
   01FD DD 46 F5            347 	ld	b,-11 (ix)
   0200 DD 5E F6            348 	ld	e,-10 (ix)
   0203 DD 56 F7            349 	ld	d,-9 (ix)
   0206 79                  350 	ld	a,c
   0207 DD B6 F0            351 	or	a,-16 (ix)
   020A 4F                  352 	ld	c,a
   020B 78                  353 	ld	a,b
   020C DD B6 F1            354 	or	a,-15 (ix)
   020F 47                  355 	ld	b,a
   0210 7B                  356 	ld	a,e
   0211 DD B6 F2            357 	or	a,-14 (ix)
   0214 5F                  358 	ld	e,a
   0215 7A                  359 	ld	a,d
   0216 DD B6 F3            360 	or	a,-13 (ix)
   0219 57                  361 	ld	d,a
   021A DD 71 F4            362 	ld	-12 (ix),c
   021D DD 70 F5            363 	ld	-11 (ix),b
   0220 DD 73 F6            364 	ld	-10 (ix),e
   0223 DD 72 F7            365 	ld	-9 (ix),d
                            366 ;../_fsdiv.c:314: mant1 -= mant2;
   0226 DD 7E EC            367 	ld	a,-20 (ix)
   0229 DD 96 E8            368 	sub	a,-24 (ix)
   022C DD 77 EC            369 	ld	-20 (ix),a
   022F DD 7E ED            370 	ld	a,-19 (ix)
   0232 DD 9E E9            371 	sbc	a,-23 (ix)
   0235 DD 77 ED            372 	ld	-19 (ix),a
   0238 DD 7E EE            373 	ld	a,-18 (ix)
   023B DD 9E EA            374 	sbc	a,-22 (ix)
   023E DD 77 EE            375 	ld	-18 (ix),a
   0241 DD 7E EF            376 	ld	a,-17 (ix)
   0244 DD 9E EB            377 	sbc	a,-21 (ix)
   0247 DD 77 EF            378 	ld	-17 (ix),a
   024A                     379 00108$:
                            380 ;../_fsdiv.c:316: mant1 <<= 1;
   024A 3E 01               381 	ld	a,#0x01
   024C F5                  382 	push	af
   024D 33                  383 	inc	sp
   024E DD 6E EE            384 	ld	l,-18 (ix)
   0251 DD 66 EF            385 	ld	h,-17 (ix)
   0254 E5                  386 	push	hl
   0255 DD 6E EC            387 	ld	l,-20 (ix)
   0258 DD 66 ED            388 	ld	h,-19 (ix)
   025B E5                  389 	push	hl
   025C CDr00s00            390 	call	__rlslong_rrx_s
   025F F1                  391 	pop	af
   0260 F1                  392 	pop	af
   0261 33                  393 	inc	sp
   0262 44                  394 	ld	b,h
   0263 DD 75 EC            395 	ld	-20 (ix),l
   0266 DD 70 ED            396 	ld	-19 (ix),b
   0269 DD 73 EE            397 	ld	-18 (ix),e
   026C DD 72 EF            398 	ld	-17 (ix),d
                            399 ;../_fsdiv.c:317: mask >>= 1;
   026F 3E 01               400 	ld	a,#0x01
   0271 F5                  401 	push	af
   0272 33                  402 	inc	sp
   0273 DD 6E F2            403 	ld	l,-14 (ix)
   0276 DD 66 F3            404 	ld	h,-13 (ix)
   0279 E5                  405 	push	hl
   027A DD 6E F0            406 	ld	l,-16 (ix)
   027D DD 66 F1            407 	ld	h,-15 (ix)
   0280 E5                  408 	push	hl
   0281 CDr00s00            409 	call	__rrulong_rrx_s
   0284 F1                  410 	pop	af
   0285 F1                  411 	pop	af
   0286 33                  412 	inc	sp
   0287 44                  413 	ld	b,h
   0288 DD 75 F0            414 	ld	-16 (ix),l
   028B DD 70 F1            415 	ld	-15 (ix),b
   028E DD 73 F2            416 	ld	-14 (ix),e
   0291 DD 72 F3            417 	ld	-13 (ix),d
   0294 C3rD0s01            418 	jp	00109$
   0297                     419 00111$:
                            420 ;../_fsdiv.c:321: result += 1;
   0297 DD 34 F4            421 	inc	-12 (ix)
   029A 20 0D               422 	jr	NZ,00134$
   029C DD 34 F5            423 	inc	-11 (ix)
   029F 20 08               424 	jr	NZ,00134$
   02A1 DD 34 F6            425 	inc	-10 (ix)
   02A4 20 03               426 	jr	NZ,00134$
   02A6 DD 34 F7            427 	inc	-9 (ix)
   02A9                     428 00134$:
                            429 ;../_fsdiv.c:324: exp++;
   02A9 DD 34 E6            430 	inc	-26 (ix)
   02AC 20 03               431 	jr	NZ,00135$
   02AE DD 34 E7            432 	inc	-25 (ix)
   02B1                     433 00135$:
                            434 ;../_fsdiv.c:325: result >>= 1;
   02B1 3E 01               435 	ld	a,#0x01
   02B3 F5                  436 	push	af
   02B4 33                  437 	inc	sp
   02B5 DD 6E F6            438 	ld	l,-10 (ix)
   02B8 DD 66 F7            439 	ld	h,-9 (ix)
   02BB E5                  440 	push	hl
   02BC DD 6E F4            441 	ld	l,-12 (ix)
   02BF DD 66 F5            442 	ld	h,-11 (ix)
   02C2 E5                  443 	push	hl
   02C3 CDr00s00            444 	call	__rrslong_rrx_s
   02C6 F1                  445 	pop	af
   02C7 F1                  446 	pop	af
   02C8 33                  447 	inc	sp
   02C9 44                  448 	ld	b,h
   02CA DD 75 F4            449 	ld	-12 (ix),l
   02CD DD 70 F5            450 	ld	-11 (ix),b
   02D0 DD 73 F6            451 	ld	-10 (ix),e
   02D3 DD 72 F7            452 	ld	-9 (ix),d
                            453 ;../_fsdiv.c:327: result &= ~HIDDEN;
   02D6 DD 4E F4            454 	ld	c,-12 (ix)
   02D9 DD 46 F5            455 	ld	b,-11 (ix)
   02DC DD 5E F6            456 	ld	e,-10 (ix)
   02DF DD 56 F7            457 	ld	d,-9 (ix)
   02E2 DD 71 F4            458 	ld	-12 (ix),c
   02E5 DD 70 F5            459 	ld	-11 (ix),b
   02E8 7B                  460 	ld	a,e
   02E9 E6 7F               461 	and	a,#0x7F
   02EB DD 77 F6            462 	ld	-10 (ix),a
   02EE DD 72 F7            463 	ld	-9 (ix),d
                            464 ;../_fsdiv.c:330: if (exp >= 0x100)
   02F1 DD 7E E6            465 	ld	a,-26 (ix)
   02F4 D6 00               466 	sub	a,#0x00
   02F6 DD 7E E7            467 	ld	a,-25 (ix)
   02F9 DE 01               468 	sbc	a,#0x01
   02FB FAr28s03            469 	jp	M,00116$
                            470 ;../_fsdiv.c:331: fl1.l = (sign ? SIGNBIT : 0) | __INFINITY;
   02FE 21 1D 00            471 	ld	hl,#0x001D
   0301 39                  472 	add	hl,sp
   0302 AF                  473 	xor	a,a
   0303 DD B6 E5            474 	or	a,-27 (ix)
   0306 28 08               475 	jr	Z,00120$
   0308 01 00 00            476 	ld	bc,#0x0000
   030B 11 00 80            477 	ld	de,#0x8000
   030E 18 06               478 	jr	00121$
   0310                     479 00120$:
   0310 01 00 00            480 	ld	bc,#0x0000
   0313 11 00 00            481 	ld	de,#0x0000
   0316                     482 00121$:
   0316 7B                  483 	ld	a,e
   0317 F6 80               484 	or	a,#0x80
   0319 5F                  485 	ld	e,a
   031A 7A                  486 	ld	a,d
   031B F6 7F               487 	or	a,#0x7F
   031D 57                  488 	ld	d,a
   031E 71                  489 	ld	(hl),c
   031F 23                  490 	inc	hl
   0320 70                  491 	ld	(hl),b
   0321 23                  492 	inc	hl
   0322 73                  493 	ld	(hl),e
   0323 23                  494 	inc	hl
   0324 72                  495 	ld	(hl),d
   0325 C3rD3s03            496 	jp	00117$
   0328                     497 00116$:
                            498 ;../_fsdiv.c:332: else if (exp < 0)
   0328 DD CB E7 7E         499 	bit	7,-25 (ix)
   032C 28 12               500 	jr	Z,00113$
                            501 ;../_fsdiv.c:333: fl1.l = 0;
   032E 21 1D 00            502 	ld	hl,#0x001D
   0331 39                  503 	add	hl,sp
   0332 36 00               504 	ld	(hl),#0x00
   0334 23                  505 	inc	hl
   0335 36 00               506 	ld	(hl),#0x00
   0337 23                  507 	inc	hl
   0338 36 00               508 	ld	(hl),#0x00
   033A 23                  509 	inc	hl
   033B 36 00               510 	ld	(hl),#0x00
   033D C3rD3s03            511 	jp	00117$
   0340                     512 00113$:
                            513 ;../_fsdiv.c:335: fl1.l = PACK (sign ? SIGNBIT : 0 , exp, result);
   0340 21 1D 00            514 	ld	hl,#0x001D
   0343 39                  515 	add	hl,sp
   0344 DD 75 DF            516 	ld	-33 (ix),l
   0347 DD 74 E0            517 	ld	-32 (ix),h
   034A AF                  518 	xor	a,a
   034B DD B6 E5            519 	or	a,-27 (ix)
   034E 28 12               520 	jr	Z,00122$
   0350 DD 36 E1 00         521 	ld	-31 (ix),#0x00
   0354 DD 36 E2 00         522 	ld	-30 (ix),#0x00
   0358 DD 36 E3 00         523 	ld	-29 (ix),#0x00
   035C DD 36 E4 80         524 	ld	-28 (ix),#0x80
   0360 18 0D               525 	jr	00123$
   0362                     526 00122$:
   0362 AF                  527 	xor	a,a
   0363 DD 77 E1            528 	ld	-31 (ix),a
   0366 DD 77 E2            529 	ld	-30 (ix),a
   0369 DD 77 E3            530 	ld	-29 (ix),a
   036C DD 77 E4            531 	ld	-28 (ix),a
   036F                     532 00123$:
   036F DD 5E E6            533 	ld	e,-26 (ix)
   0372 DD 56 E7            534 	ld	d,-25 (ix)
   0375 DD 7E E7            535 	ld	a,-25 (ix)
   0378 17                  536 	rla	
   0379 9F                  537 	sbc	a,a
   037A 4F                  538 	ld	c,a
   037B 47                  539 	ld	b,a
   037C 3E 17               540 	ld	a,#0x17
   037E F5                  541 	push	af
   037F 33                  542 	inc	sp
   0380 C5                  543 	push	bc
   0381 D5                  544 	push	de
   0382 CDr00s00            545 	call	__rlulong_rrx_s
   0385 F1                  546 	pop	af
   0386 F1                  547 	pop	af
   0387 33                  548 	inc	sp
   0388 44                  549 	ld	b,h
   0389 4D                  550 	ld	c,l
   038A DD 7E E1            551 	ld	a,-31 (ix)
   038D B1                  552 	or	a,c
   038E DD 77 E1            553 	ld	-31 (ix),a
   0391 DD 7E E2            554 	ld	a,-30 (ix)
   0394 B0                  555 	or	a,b
   0395 DD 77 E2            556 	ld	-30 (ix),a
   0398 DD 7E E3            557 	ld	a,-29 (ix)
   039B B3                  558 	or	a,e
   039C DD 77 E3            559 	ld	-29 (ix),a
   039F DD 7E E4            560 	ld	a,-28 (ix)
   03A2 B2                  561 	or	a,d
   03A3 DD 77 E4            562 	ld	-28 (ix),a
   03A6 DD 4E F4            563 	ld	c,-12 (ix)
   03A9 DD 46 F5            564 	ld	b,-11 (ix)
   03AC DD 5E F6            565 	ld	e,-10 (ix)
   03AF DD 56 F7            566 	ld	d,-9 (ix)
   03B2 79                  567 	ld	a,c
   03B3 DD B6 E1            568 	or	a,-31 (ix)
   03B6 4F                  569 	ld	c,a
   03B7 78                  570 	ld	a,b
   03B8 DD B6 E2            571 	or	a,-30 (ix)
   03BB 47                  572 	ld	b,a
   03BC 7B                  573 	ld	a,e
   03BD DD B6 E3            574 	or	a,-29 (ix)
   03C0 5F                  575 	ld	e,a
   03C1 7A                  576 	ld	a,d
   03C2 DD B6 E4            577 	or	a,-28 (ix)
   03C5 57                  578 	ld	d,a
   03C6 DD 6E DF            579 	ld	l,-33 (ix)
   03C9 DD 66 E0            580 	ld	h,-32 (ix)
   03CC 71                  581 	ld	(hl),c
   03CD 23                  582 	inc	hl
   03CE 70                  583 	ld	(hl),b
   03CF 23                  584 	inc	hl
   03D0 73                  585 	ld	(hl),e
   03D1 23                  586 	inc	hl
   03D2 72                  587 	ld	(hl),d
   03D3                     588 00117$:
                            589 ;../_fsdiv.c:336: return (fl1.f);
   03D3 21 1D 00            590 	ld	hl,#0x001D
   03D6 39                  591 	add	hl,sp
   03D7 4E                  592 	ld	c,(hl)
   03D8 23                  593 	inc	hl
   03D9 46                  594 	ld	b,(hl)
   03DA 23                  595 	inc	hl
   03DB 5E                  596 	ld	e,(hl)
   03DC 23                  597 	inc	hl
   03DD 56                  598 	ld	d,(hl)
   03DE 69                  599 	ld	l,c
   03DF 60                  600 	ld	h,b
   03E0                     601 00118$:
   03E0 DD F9               602 	ld	sp,ix
   03E2 DD E1               603 	pop	ix
   03E4 C9                  604 	ret
   03E5                     605 ___fsdiv_end::
                            606 	.area _CODE
                            607 	.area _CABS
