                              1 ;--------------------------------------------------------
                              2 ; File Created by SDCC : free open source ANSI-C Compiler
                              3 ; Version 2.9.4 #5595 (Oct 23 2013) (Mac OS X ppc)
                              4 ; This file was generated Wed Oct 23 12:26:07 2013
                              5 ;--------------------------------------------------------
                              6 	.module _fsmul
                              7 	.optsdcc -mz80
                              8 	
                              9 ;--------------------------------------------------------
                             10 ; Public variables in this module
                             11 ;--------------------------------------------------------
                             12 	.globl ___fsmul
                             13 ;--------------------------------------------------------
                             14 ; special function registers
                             15 ;--------------------------------------------------------
                             16 ;--------------------------------------------------------
                             17 ;  ram data
                             18 ;--------------------------------------------------------
                             19 	.area _DATA
                             20 ;--------------------------------------------------------
                             21 ; overlayable items in  ram 
                             22 ;--------------------------------------------------------
                             23 	.area _OVERLAY
                             24 ;--------------------------------------------------------
                             25 ; external initialized ram data
                             26 ;--------------------------------------------------------
                             27 ;--------------------------------------------------------
                             28 ; global & static initialisations
                             29 ;--------------------------------------------------------
                             30 	.area _HOME
                             31 	.area _GSINIT
                             32 	.area _GSFINAL
                             33 	.area _GSINIT
                             34 ;--------------------------------------------------------
                             35 ; Home
                             36 ;--------------------------------------------------------
                             37 	.area _HOME
                             38 	.area _HOME
                             39 ;--------------------------------------------------------
                             40 ; code
                             41 ;--------------------------------------------------------
                             42 	.area _CODE
                             43 ;../_fsmul.c:231: float __fsmul (float a1, float a2) {
                             44 ;	---------------------------------
                             45 ; Function __fsmul
                             46 ; ---------------------------------
   0000                      47 ___fsmul_start::
   0000                      48 ___fsmul:
   0000 DD E5                49 	push	ix
   0002 DD 21 00 00          50 	ld	ix,#0
   0006 DD 39                51 	add	ix,sp
   0008 21 EA FF             52 	ld	hl,#-22
   000B 39                   53 	add	hl,sp
   000C F9                   54 	ld	sp,hl
                             55 ;../_fsmul.c:237: fl1.f = a1;
   000D 21 12 00             56 	ld	hl,#0x0012
   0010 39                   57 	add	hl,sp
   0011 DD 7E 04             58 	ld	a,4 (ix)
   0014 77                   59 	ld	(hl),a
   0015 23                   60 	inc	hl
   0016 DD 7E 05             61 	ld	a,5 (ix)
   0019 77                   62 	ld	(hl),a
   001A 23                   63 	inc	hl
   001B DD 7E 06             64 	ld	a,6 (ix)
   001E 77                   65 	ld	(hl),a
   001F 23                   66 	inc	hl
   0020 DD 7E 07             67 	ld	a,7 (ix)
   0023 77                   68 	ld	(hl),a
                             69 ;../_fsmul.c:238: fl2.f = a2;
   0024 21 0E 00             70 	ld	hl,#0x000E
   0027 39                   71 	add	hl,sp
   0028 DD 7E 08             72 	ld	a,8 (ix)
   002B 77                   73 	ld	(hl),a
   002C 23                   74 	inc	hl
   002D DD 7E 09             75 	ld	a,9 (ix)
   0030 77                   76 	ld	(hl),a
   0031 23                   77 	inc	hl
   0032 DD 7E 0A             78 	ld	a,10 (ix)
   0035 77                   79 	ld	(hl),a
   0036 23                   80 	inc	hl
   0037 DD 7E 0B             81 	ld	a,11 (ix)
   003A 77                   82 	ld	(hl),a
                             83 ;../_fsmul.c:240: if (!fl1.l || !fl2.l)
   003B 21 12 00             84 	ld	hl,#0x0012
   003E 39                   85 	add	hl,sp
   003F 4E                   86 	ld	c,(hl)
   0040 23                   87 	inc	hl
   0041 46                   88 	ld	b,(hl)
   0042 23                   89 	inc	hl
   0043 5E                   90 	ld	e,(hl)
   0044 23                   91 	inc	hl
   0045 56                   92 	ld	d,(hl)
   0046 79                   93 	ld	a,c
   0047 B0                   94 	or	a,b
   0048 B3                   95 	or	a,e
   0049 B2                   96 	or	a,d
   004A 28 11                97 	jr	Z,00101$
   004C 21 0E 00             98 	ld	hl,#0x000E
   004F 39                   99 	add	hl,sp
   0050 4E                  100 	ld	c,(hl)
   0051 23                  101 	inc	hl
   0052 46                  102 	ld	b,(hl)
   0053 23                  103 	inc	hl
   0054 5E                  104 	ld	e,(hl)
   0055 23                  105 	inc	hl
   0056 56                  106 	ld	d,(hl)
   0057 79                  107 	ld	a,c
   0058 B0                  108 	or	a,b
   0059 B3                  109 	or	a,e
   005A B2                  110 	or	a,d
   005B 20 08               111 	jr	NZ,00102$
   005D                     112 00101$:
                            113 ;../_fsmul.c:241: return (0);
   005D 21 00 00            114 	ld	hl,#0x0000
   0060 5D                  115 	ld	e,l
   0061 54                  116 	ld	d,h
   0062 C3r27s04            117 	jp	00113$
   0065                     118 00102$:
                            119 ;../_fsmul.c:244: sign = SIGN (fl1.l) ^ SIGN (fl2.l);
   0065 21 12 00            120 	ld	hl,#0x0012
   0068 39                  121 	add	hl,sp
   0069 4E                  122 	ld	c,(hl)
   006A 23                  123 	inc	hl
   006B 46                  124 	ld	b,(hl)
   006C 23                  125 	inc	hl
   006D 5E                  126 	ld	e,(hl)
   006E 23                  127 	inc	hl
   006F 56                  128 	ld	d,(hl)
   0070 7A                  129 	ld	a,d
   0071 CB 07               130 	rlc	a
   0073 E6 01               131 	and	a,#0x01
   0075 DD 77 F0            132 	ld	-16 (ix),a
   0078 21 0E 00            133 	ld	hl,#0x000E
   007B 39                  134 	add	hl,sp
   007C 46                  135 	ld	b,(hl)
   007D 23                  136 	inc	hl
   007E 5E                  137 	ld	e,(hl)
   007F 23                  138 	inc	hl
   0080 56                  139 	ld	d,(hl)
   0081 23                  140 	inc	hl
   0082 4E                  141 	ld	c,(hl)
   0083 79                  142 	ld	a,c
   0084 CB 07               143 	rlc	a
   0086 E6 01               144 	and	a,#0x01
   0088 DD AE F0            145 	xor	a,-16 (ix)
   008B DD 77 F1            146 	ld	-15 (ix),a
                            147 ;../_fsmul.c:245: exp = EXP (fl1.l) - EXCESS;
   008E 21 12 00            148 	ld	hl,#0x0012
   0091 39                  149 	add	hl,sp
   0092 46                  150 	ld	b,(hl)
   0093 23                  151 	inc	hl
   0094 5E                  152 	ld	e,(hl)
   0095 23                  153 	inc	hl
   0096 56                  154 	ld	d,(hl)
   0097 23                  155 	inc	hl
   0098 4E                  156 	ld	c,(hl)
   0099 3E 17               157 	ld	a,#0x17
   009B F5                  158 	push	af
   009C 33                  159 	inc	sp
   009D 6A                  160 	ld	l,d
   009E 61                  161 	ld	h,c
   009F E5                  162 	push	hl
   00A0 68                  163 	ld	l,b
   00A1 63                  164 	ld	h,e
   00A2 E5                  165 	push	hl
   00A3 CDr00s00            166 	call	__rrulong_rrx_s
   00A6 F1                  167 	pop	af
   00A7 F1                  168 	pop	af
   00A8 33                  169 	inc	sp
   00A9 4D                  170 	ld	c,l
   00AA 06 00               171 	ld	b,#0x00
   00AC 11 00 00            172 	ld	de,#0x0000
   00AF 79                  173 	ld	a,c
   00B0 C6 82               174 	add	a,#0x82
   00B2 4F                  175 	ld	c,a
   00B3 78                  176 	ld	a,b
   00B4 CE FF               177 	adc	a,#0xFF
   00B6 47                  178 	ld	b,a
   00B7 7B                  179 	ld	a,e
   00B8 CE FF               180 	adc	a,#0xFF
   00BA 7A                  181 	ld	a,d
   00BB CE FF               182 	adc	a,#0xFF
   00BD DD 71 F2            183 	ld	-14 (ix),c
   00C0 DD 70 F3            184 	ld	-13 (ix),b
                            185 ;../_fsmul.c:246: exp += EXP (fl2.l);
   00C3 21 0E 00            186 	ld	hl,#0x000E
   00C6 39                  187 	add	hl,sp
   00C7 4E                  188 	ld	c,(hl)
   00C8 23                  189 	inc	hl
   00C9 46                  190 	ld	b,(hl)
   00CA 23                  191 	inc	hl
   00CB 5E                  192 	ld	e,(hl)
   00CC 23                  193 	inc	hl
   00CD 56                  194 	ld	d,(hl)
   00CE 3E 17               195 	ld	a,#0x17
   00D0 F5                  196 	push	af
   00D1 33                  197 	inc	sp
   00D2 D5                  198 	push	de
   00D3 C5                  199 	push	bc
   00D4 CDr00s00            200 	call	__rrulong_rrx_s
   00D7 F1                  201 	pop	af
   00D8 F1                  202 	pop	af
   00D9 33                  203 	inc	sp
   00DA DD 75 EC            204 	ld	-20 (ix),l
   00DD DD 36 ED 00         205 	ld	-19 (ix),#0x00
   00E1 DD 36 EE 00         206 	ld	-18 (ix),#0x00
   00E5 DD 36 EF 00         207 	ld	-17 (ix),#0x00
   00E9 DD 4E F2            208 	ld	c,-14 (ix)
   00EC DD 46 F3            209 	ld	b,-13 (ix)
   00EF DD 7E F3            210 	ld	a,-13 (ix)
   00F2 17                  211 	rla	
   00F3 9F                  212 	sbc	a,a
   00F4 5F                  213 	ld	e,a
   00F5 57                  214 	ld	d,a
   00F6 79                  215 	ld	a,c
   00F7 DD 86 EC            216 	add	a,-20 (ix)
   00FA 4F                  217 	ld	c,a
   00FB 78                  218 	ld	a,b
   00FC DD 8E ED            219 	adc	a,-19 (ix)
   00FF 47                  220 	ld	b,a
   0100 7B                  221 	ld	a,e
   0101 DD 8E EE            222 	adc	a,-18 (ix)
   0104 7A                  223 	ld	a,d
   0105 DD 8E EF            224 	adc	a,-17 (ix)
   0108 DD 71 F2            225 	ld	-14 (ix),c
   010B DD 70 F3            226 	ld	-13 (ix),b
                            227 ;../_fsmul.c:248: fl1.l = MANT (fl1.l);
   010E 21 12 00            228 	ld	hl,#0x0012
   0111 39                  229 	add	hl,sp
   0112 DD 75 EC            230 	ld	-20 (ix),l
   0115 DD 74 ED            231 	ld	-19 (ix),h
   0118 21 12 00            232 	ld	hl,#0x0012
   011B 39                  233 	add	hl,sp
   011C 5E                  234 	ld	e,(hl)
   011D 23                  235 	inc	hl
   011E 56                  236 	ld	d,(hl)
   011F 23                  237 	inc	hl
   0120 4E                  238 	ld	c,(hl)
   0121 23                  239 	inc	hl
   0122 79                  240 	ld	a,c
   0123 E6 7F               241 	and	a,#0x7F
   0125 06 00               242 	ld	b,#0x00
   0127 F6 80               243 	or	a,#0x80
   0129 4F                  244 	ld	c,a
   012A DD 6E EC            245 	ld	l,-20 (ix)
   012D DD 66 ED            246 	ld	h,-19 (ix)
   0130 73                  247 	ld	(hl),e
   0131 23                  248 	inc	hl
   0132 72                  249 	ld	(hl),d
   0133 23                  250 	inc	hl
   0134 71                  251 	ld	(hl),c
   0135 23                  252 	inc	hl
   0136 70                  253 	ld	(hl),b
                            254 ;../_fsmul.c:249: fl2.l = MANT (fl2.l);
   0137 21 0E 00            255 	ld	hl,#0x000E
   013A 39                  256 	add	hl,sp
   013B DD 75 EC            257 	ld	-20 (ix),l
   013E DD 74 ED            258 	ld	-19 (ix),h
   0141 21 0E 00            259 	ld	hl,#0x000E
   0144 39                  260 	add	hl,sp
   0145 5E                  261 	ld	e,(hl)
   0146 23                  262 	inc	hl
   0147 56                  263 	ld	d,(hl)
   0148 23                  264 	inc	hl
   0149 4E                  265 	ld	c,(hl)
   014A 23                  266 	inc	hl
   014B 79                  267 	ld	a,c
   014C E6 7F               268 	and	a,#0x7F
   014E 06 00               269 	ld	b,#0x00
   0150 F6 80               270 	or	a,#0x80
   0152 4F                  271 	ld	c,a
   0153 DD 6E EC            272 	ld	l,-20 (ix)
   0156 DD 66 ED            273 	ld	h,-19 (ix)
   0159 73                  274 	ld	(hl),e
   015A 23                  275 	inc	hl
   015B 72                  276 	ld	(hl),d
   015C 23                  277 	inc	hl
   015D 71                  278 	ld	(hl),c
   015E 23                  279 	inc	hl
   015F 70                  280 	ld	(hl),b
                            281 ;../_fsmul.c:252: result = (fl1.l >> 8) * (fl2.l >> 8);
   0160 21 12 00            282 	ld	hl,#0x0012
   0163 39                  283 	add	hl,sp
   0164 4E                  284 	ld	c,(hl)
   0165 23                  285 	inc	hl
   0166 46                  286 	ld	b,(hl)
   0167 23                  287 	inc	hl
   0168 5E                  288 	ld	e,(hl)
   0169 23                  289 	inc	hl
   016A 56                  290 	ld	d,(hl)
   016B 3E 08               291 	ld	a,#0x08
   016D F5                  292 	push	af
   016E 33                  293 	inc	sp
   016F D5                  294 	push	de
   0170 C5                  295 	push	bc
   0171 CDr00s00            296 	call	__rrulong_rrx_s
   0174 F1                  297 	pop	af
   0175 F1                  298 	pop	af
   0176 33                  299 	inc	sp
   0177 DD 72 EF            300 	ld	-17 (ix),d
   017A DD 73 EE            301 	ld	-18 (ix),e
   017D DD 74 ED            302 	ld	-19 (ix),h
   0180 DD 75 EC            303 	ld	-20 (ix),l
   0183 21 0E 00            304 	ld	hl,#0x000E
   0186 39                  305 	add	hl,sp
   0187 4E                  306 	ld	c,(hl)
   0188 23                  307 	inc	hl
   0189 46                  308 	ld	b,(hl)
   018A 23                  309 	inc	hl
   018B 5E                  310 	ld	e,(hl)
   018C 23                  311 	inc	hl
   018D 56                  312 	ld	d,(hl)
   018E 3E 08               313 	ld	a,#0x08
   0190 F5                  314 	push	af
   0191 33                  315 	inc	sp
   0192 D5                  316 	push	de
   0193 C5                  317 	push	bc
   0194 CDr00s00            318 	call	__rrulong_rrx_s
   0197 F1                  319 	pop	af
   0198 F1                  320 	pop	af
   0199 33                  321 	inc	sp
   019A 44                  322 	ld	b,h
   019B 4D                  323 	ld	c,l
   019C D5                  324 	push	de
   019D C5                  325 	push	bc
   019E DD 6E EE            326 	ld	l,-18 (ix)
   01A1 DD 66 EF            327 	ld	h,-17 (ix)
   01A4 E5                  328 	push	hl
   01A5 DD 6E EC            329 	ld	l,-20 (ix)
   01A8 DD 66 ED            330 	ld	h,-19 (ix)
   01AB E5                  331 	push	hl
   01AC CDr00s00            332 	call	__mullong_rrx_s
   01AF F1                  333 	pop	af
   01B0 F1                  334 	pop	af
   01B1 F1                  335 	pop	af
   01B2 F1                  336 	pop	af
   01B3 44                  337 	ld	b,h
   01B4 DD 75 F4            338 	ld	-12 (ix),l
   01B7 DD 70 F5            339 	ld	-11 (ix),b
   01BA DD 73 F6            340 	ld	-10 (ix),e
   01BD DD 72 F7            341 	ld	-9 (ix),d
                            342 ;../_fsmul.c:253: result += ((fl1.l & (unsigned long) 0xFF) * (fl2.l >> 8)) >> 8;
   01C0 21 12 00            343 	ld	hl,#0x0012
   01C3 39                  344 	add	hl,sp
   01C4 4E                  345 	ld	c,(hl)
   01C5 23                  346 	inc	hl
   01C6 23                  347 	inc	hl
   01C7 23                  348 	inc	hl
   01C8 DD 71 EC            349 	ld	-20 (ix),c
   01CB DD 36 ED 00         350 	ld	-19 (ix),#0x00
   01CF DD 36 EE 00         351 	ld	-18 (ix),#0x00
   01D3 DD 36 EF 00         352 	ld	-17 (ix),#0x00
   01D7 21 0E 00            353 	ld	hl,#0x000E
   01DA 39                  354 	add	hl,sp
   01DB 4E                  355 	ld	c,(hl)
   01DC 23                  356 	inc	hl
   01DD 46                  357 	ld	b,(hl)
   01DE 23                  358 	inc	hl
   01DF 5E                  359 	ld	e,(hl)
   01E0 23                  360 	inc	hl
   01E1 56                  361 	ld	d,(hl)
   01E2 3E 08               362 	ld	a,#0x08
   01E4 F5                  363 	push	af
   01E5 33                  364 	inc	sp
   01E6 D5                  365 	push	de
   01E7 C5                  366 	push	bc
   01E8 CDr00s00            367 	call	__rrulong_rrx_s
   01EB F1                  368 	pop	af
   01EC F1                  369 	pop	af
   01ED 33                  370 	inc	sp
   01EE 44                  371 	ld	b,h
   01EF 4D                  372 	ld	c,l
   01F0 D5                  373 	push	de
   01F1 C5                  374 	push	bc
   01F2 DD 6E EE            375 	ld	l,-18 (ix)
   01F5 DD 66 EF            376 	ld	h,-17 (ix)
   01F8 E5                  377 	push	hl
   01F9 DD 6E EC            378 	ld	l,-20 (ix)
   01FC DD 66 ED            379 	ld	h,-19 (ix)
   01FF E5                  380 	push	hl
   0200 CDr00s00            381 	call	__mullong_rrx_s
   0203 F1                  382 	pop	af
   0204 F1                  383 	pop	af
   0205 F1                  384 	pop	af
   0206 F1                  385 	pop	af
   0207 44                  386 	ld	b,h
   0208 4D                  387 	ld	c,l
   0209 3E 08               388 	ld	a,#0x08
   020B F5                  389 	push	af
   020C 33                  390 	inc	sp
   020D D5                  391 	push	de
   020E C5                  392 	push	bc
   020F CDr00s00            393 	call	__rrulong_rrx_s
   0212 F1                  394 	pop	af
   0213 F1                  395 	pop	af
   0214 33                  396 	inc	sp
   0215 44                  397 	ld	b,h
   0216 4D                  398 	ld	c,l
   0217 DD 7E F4            399 	ld	a,-12 (ix)
   021A 81                  400 	add	a,c
   021B DD 77 F4            401 	ld	-12 (ix),a
   021E DD 7E F5            402 	ld	a,-11 (ix)
   0221 88                  403 	adc	a,b
   0222 DD 77 F5            404 	ld	-11 (ix),a
   0225 DD 7E F6            405 	ld	a,-10 (ix)
   0228 8B                  406 	adc	a,e
   0229 DD 77 F6            407 	ld	-10 (ix),a
   022C DD 7E F7            408 	ld	a,-9 (ix)
   022F 8A                  409 	adc	a,d
   0230 DD 77 F7            410 	ld	-9 (ix),a
                            411 ;../_fsmul.c:254: result += ((fl2.l & (unsigned long) 0xFF) * (fl1.l >> 8)) >> 8;
   0233 21 0E 00            412 	ld	hl,#0x000E
   0236 39                  413 	add	hl,sp
   0237 4E                  414 	ld	c,(hl)
   0238 23                  415 	inc	hl
   0239 23                  416 	inc	hl
   023A 23                  417 	inc	hl
   023B DD 71 EC            418 	ld	-20 (ix),c
   023E DD 36 ED 00         419 	ld	-19 (ix),#0x00
   0242 DD 36 EE 00         420 	ld	-18 (ix),#0x00
   0246 DD 36 EF 00         421 	ld	-17 (ix),#0x00
   024A 21 12 00            422 	ld	hl,#0x0012
   024D 39                  423 	add	hl,sp
   024E 4E                  424 	ld	c,(hl)
   024F 23                  425 	inc	hl
   0250 46                  426 	ld	b,(hl)
   0251 23                  427 	inc	hl
   0252 5E                  428 	ld	e,(hl)
   0253 23                  429 	inc	hl
   0254 56                  430 	ld	d,(hl)
   0255 3E 08               431 	ld	a,#0x08
   0257 F5                  432 	push	af
   0258 33                  433 	inc	sp
   0259 D5                  434 	push	de
   025A C5                  435 	push	bc
   025B CDr00s00            436 	call	__rrulong_rrx_s
   025E F1                  437 	pop	af
   025F F1                  438 	pop	af
   0260 33                  439 	inc	sp
   0261 44                  440 	ld	b,h
   0262 4D                  441 	ld	c,l
   0263 D5                  442 	push	de
   0264 C5                  443 	push	bc
   0265 DD 6E EE            444 	ld	l,-18 (ix)
   0268 DD 66 EF            445 	ld	h,-17 (ix)
   026B E5                  446 	push	hl
   026C DD 6E EC            447 	ld	l,-20 (ix)
   026F DD 66 ED            448 	ld	h,-19 (ix)
   0272 E5                  449 	push	hl
   0273 CDr00s00            450 	call	__mullong_rrx_s
   0276 F1                  451 	pop	af
   0277 F1                  452 	pop	af
   0278 F1                  453 	pop	af
   0279 F1                  454 	pop	af
   027A 44                  455 	ld	b,h
   027B 4D                  456 	ld	c,l
   027C 3E 08               457 	ld	a,#0x08
   027E F5                  458 	push	af
   027F 33                  459 	inc	sp
   0280 D5                  460 	push	de
   0281 C5                  461 	push	bc
   0282 CDr00s00            462 	call	__rrulong_rrx_s
   0285 F1                  463 	pop	af
   0286 F1                  464 	pop	af
   0287 33                  465 	inc	sp
   0288 44                  466 	ld	b,h
   0289 4D                  467 	ld	c,l
   028A DD 7E F4            468 	ld	a,-12 (ix)
   028D 81                  469 	add	a,c
   028E DD 77 F4            470 	ld	-12 (ix),a
   0291 DD 7E F5            471 	ld	a,-11 (ix)
   0294 88                  472 	adc	a,b
   0295 DD 77 F5            473 	ld	-11 (ix),a
   0298 DD 7E F6            474 	ld	a,-10 (ix)
   029B 8B                  475 	adc	a,e
   029C DD 77 F6            476 	ld	-10 (ix),a
   029F DD 7E F7            477 	ld	a,-9 (ix)
   02A2 8A                  478 	adc	a,d
   02A3 DD 77 F7            479 	ld	-9 (ix),a
                            480 ;../_fsmul.c:257: result += 0x40;
   02A6 DD 7E F4            481 	ld	a,-12 (ix)
   02A9 C6 40               482 	add	a,#0x40
   02AB DD 77 F4            483 	ld	-12 (ix),a
   02AE DD 7E F5            484 	ld	a,-11 (ix)
   02B1 CE 00               485 	adc	a,#0x00
   02B3 DD 77 F5            486 	ld	-11 (ix),a
   02B6 DD 7E F6            487 	ld	a,-10 (ix)
   02B9 CE 00               488 	adc	a,#0x00
   02BB DD 77 F6            489 	ld	-10 (ix),a
   02BE DD 7E F7            490 	ld	a,-9 (ix)
   02C1 CE 00               491 	adc	a,#0x00
                            492 ;../_fsmul.c:259: if (result & SIGNBIT)
   02C3 DD 77 F7            493 	ld	-9 (ix),a
   02C6 E6 80               494 	and	a,#0x80
   02C8 28 48               495 	jr	Z,00105$
                            496 ;../_fsmul.c:262: result += 0x40;
   02CA DD 7E F4            497 	ld	a,-12 (ix)
   02CD C6 40               498 	add	a,#0x40
   02CF DD 77 F4            499 	ld	-12 (ix),a
   02D2 DD 7E F5            500 	ld	a,-11 (ix)
   02D5 CE 00               501 	adc	a,#0x00
   02D7 DD 77 F5            502 	ld	-11 (ix),a
   02DA DD 7E F6            503 	ld	a,-10 (ix)
   02DD CE 00               504 	adc	a,#0x00
   02DF DD 77 F6            505 	ld	-10 (ix),a
   02E2 DD 7E F7            506 	ld	a,-9 (ix)
   02E5 CE 00               507 	adc	a,#0x00
   02E7 DD 77 F7            508 	ld	-9 (ix),a
                            509 ;../_fsmul.c:263: result >>= 8;
   02EA 3E 08               510 	ld	a,#0x08
   02EC F5                  511 	push	af
   02ED 33                  512 	inc	sp
   02EE DD 6E F6            513 	ld	l,-10 (ix)
   02F1 DD 66 F7            514 	ld	h,-9 (ix)
   02F4 E5                  515 	push	hl
   02F5 DD 6E F4            516 	ld	l,-12 (ix)
   02F8 DD 66 F5            517 	ld	h,-11 (ix)
   02FB E5                  518 	push	hl
   02FC CDr00s00            519 	call	__rrulong_rrx_s
   02FF F1                  520 	pop	af
   0300 F1                  521 	pop	af
   0301 33                  522 	inc	sp
   0302 44                  523 	ld	b,h
   0303 4D                  524 	ld	c,l
   0304 DD 71 F4            525 	ld	-12 (ix),c
   0307 DD 70 F5            526 	ld	-11 (ix),b
   030A DD 73 F6            527 	ld	-10 (ix),e
   030D DD 72 F7            528 	ld	-9 (ix),d
   0310 18 33               529 	jr	00106$
   0312                     530 00105$:
                            531 ;../_fsmul.c:267: result >>= 7;
   0312 3E 07               532 	ld	a,#0x07
   0314 F5                  533 	push	af
   0315 33                  534 	inc	sp
   0316 DD 6E F6            535 	ld	l,-10 (ix)
   0319 DD 66 F7            536 	ld	h,-9 (ix)
   031C E5                  537 	push	hl
   031D DD 6E F4            538 	ld	l,-12 (ix)
   0320 DD 66 F5            539 	ld	h,-11 (ix)
   0323 E5                  540 	push	hl
   0324 CDr00s00            541 	call	__rrulong_rrx_s
   0327 F1                  542 	pop	af
   0328 F1                  543 	pop	af
   0329 33                  544 	inc	sp
   032A 44                  545 	ld	b,h
   032B 4D                  546 	ld	c,l
   032C DD 71 F4            547 	ld	-12 (ix),c
   032F DD 70 F5            548 	ld	-11 (ix),b
   0332 DD 73 F6            549 	ld	-10 (ix),e
   0335 DD 72 F7            550 	ld	-9 (ix),d
                            551 ;../_fsmul.c:268: exp--;
   0338 DD 6E F2            552 	ld	l,-14 (ix)
   033B DD 66 F3            553 	ld	h,-13 (ix)
   033E 2B                  554 	dec	hl
   033F DD 75 F2            555 	ld	-14 (ix),l
   0342 DD 74 F3            556 	ld	-13 (ix),h
   0345                     557 00106$:
                            558 ;../_fsmul.c:271: result &= ~HIDDEN;
   0345 DD 7E F6            559 	ld	a,-10 (ix)
   0348 E6 7F               560 	and	a,#0x7F
   034A DD 77 F6            561 	ld	-10 (ix),a
                            562 ;../_fsmul.c:274: if (exp >= 0x100)
   034D DD 7E F2            563 	ld	a,-14 (ix)
   0350 D6 00               564 	sub	a,#0x00
   0352 DD 7E F3            565 	ld	a,-13 (ix)
   0355 DE 01               566 	sbc	a,#0x01
   0357 FAr84s03            567 	jp	M,00111$
                            568 ;../_fsmul.c:275: fl1.l = (sign ? SIGNBIT : 0) | __INFINITY;
   035A 21 12 00            569 	ld	hl,#0x0012
   035D 39                  570 	add	hl,sp
   035E AF                  571 	xor	a,a
   035F DD B6 F1            572 	or	a,-15 (ix)
   0362 28 08               573 	jr	Z,00115$
   0364 01 00 00            574 	ld	bc,#0x0000
   0367 11 00 80            575 	ld	de,#0x8000
   036A 18 06               576 	jr	00116$
   036C                     577 00115$:
   036C 01 00 00            578 	ld	bc,#0x0000
   036F 11 00 00            579 	ld	de,#0x0000
   0372                     580 00116$:
   0372 7B                  581 	ld	a,e
   0373 F6 80               582 	or	a,#0x80
   0375 5F                  583 	ld	e,a
   0376 7A                  584 	ld	a,d
   0377 F6 7F               585 	or	a,#0x7F
   0379 57                  586 	ld	d,a
   037A 71                  587 	ld	(hl),c
   037B 23                  588 	inc	hl
   037C 70                  589 	ld	(hl),b
   037D 23                  590 	inc	hl
   037E 73                  591 	ld	(hl),e
   037F 23                  592 	inc	hl
   0380 72                  593 	ld	(hl),d
   0381 C3r1As04            594 	jp	00112$
   0384                     595 00111$:
                            596 ;../_fsmul.c:276: else if (exp < 0)
   0384 DD CB F3 7E         597 	bit	7,-13 (ix)
   0388 28 12               598 	jr	Z,00108$
                            599 ;../_fsmul.c:277: fl1.l = 0;
   038A 21 12 00            600 	ld	hl,#0x0012
   038D 39                  601 	add	hl,sp
   038E 36 00               602 	ld	(hl),#0x00
   0390 23                  603 	inc	hl
   0391 36 00               604 	ld	(hl),#0x00
   0393 23                  605 	inc	hl
   0394 36 00               606 	ld	(hl),#0x00
   0396 23                  607 	inc	hl
   0397 36 00               608 	ld	(hl),#0x00
   0399 C3r1As04            609 	jp	00112$
   039C                     610 00108$:
                            611 ;../_fsmul.c:279: fl1.l = PACK (sign ? SIGNBIT : 0 , exp, result);
   039C 21 12 00            612 	ld	hl,#0x0012
   039F 39                  613 	add	hl,sp
   03A0 DD 75 EA            614 	ld	-22 (ix),l
   03A3 DD 74 EB            615 	ld	-21 (ix),h
   03A6 AF                  616 	xor	a,a
   03A7 DD B6 F1            617 	or	a,-15 (ix)
   03AA 28 12               618 	jr	Z,00117$
   03AC DD 36 EC 00         619 	ld	-20 (ix),#0x00
   03B0 DD 36 ED 00         620 	ld	-19 (ix),#0x00
   03B4 DD 36 EE 00         621 	ld	-18 (ix),#0x00
   03B8 DD 36 EF 80         622 	ld	-17 (ix),#0x80
   03BC 18 0D               623 	jr	00118$
   03BE                     624 00117$:
   03BE AF                  625 	xor	a,a
   03BF DD 77 EC            626 	ld	-20 (ix),a
   03C2 DD 77 ED            627 	ld	-19 (ix),a
   03C5 DD 77 EE            628 	ld	-18 (ix),a
   03C8 DD 77 EF            629 	ld	-17 (ix),a
   03CB                     630 00118$:
   03CB DD 5E F2            631 	ld	e,-14 (ix)
   03CE DD 56 F3            632 	ld	d,-13 (ix)
   03D1 DD 7E F3            633 	ld	a,-13 (ix)
   03D4 17                  634 	rla	
   03D5 9F                  635 	sbc	a,a
   03D6 4F                  636 	ld	c,a
   03D7 47                  637 	ld	b,a
   03D8 3E 17               638 	ld	a,#0x17
   03DA F5                  639 	push	af
   03DB 33                  640 	inc	sp
   03DC C5                  641 	push	bc
   03DD D5                  642 	push	de
   03DE CDr00s00            643 	call	__rlulong_rrx_s
   03E1 F1                  644 	pop	af
   03E2 F1                  645 	pop	af
   03E3 33                  646 	inc	sp
   03E4 44                  647 	ld	b,h
   03E5 7D                  648 	ld	a,l
   03E6 DD B6 EC            649 	or	a,-20 (ix)
   03E9 4F                  650 	ld	c,a
   03EA 78                  651 	ld	a,b
   03EB DD B6 ED            652 	or	a,-19 (ix)
   03EE 47                  653 	ld	b,a
   03EF 7B                  654 	ld	a,e
   03F0 DD B6 EE            655 	or	a,-18 (ix)
   03F3 5F                  656 	ld	e,a
   03F4 7A                  657 	ld	a,d
   03F5 DD B6 EF            658 	or	a,-17 (ix)
   03F8 57                  659 	ld	d,a
   03F9 79                  660 	ld	a,c
   03FA DD B6 F4            661 	or	a,-12 (ix)
   03FD 4F                  662 	ld	c,a
   03FE 78                  663 	ld	a,b
   03FF DD B6 F5            664 	or	a,-11 (ix)
   0402 47                  665 	ld	b,a
   0403 7B                  666 	ld	a,e
   0404 DD B6 F6            667 	or	a,-10 (ix)
   0407 5F                  668 	ld	e,a
   0408 7A                  669 	ld	a,d
   0409 DD B6 F7            670 	or	a,-9 (ix)
   040C 57                  671 	ld	d,a
   040D DD 6E EA            672 	ld	l,-22 (ix)
   0410 DD 66 EB            673 	ld	h,-21 (ix)
   0413 71                  674 	ld	(hl),c
   0414 23                  675 	inc	hl
   0415 70                  676 	ld	(hl),b
   0416 23                  677 	inc	hl
   0417 73                  678 	ld	(hl),e
   0418 23                  679 	inc	hl
   0419 72                  680 	ld	(hl),d
   041A                     681 00112$:
                            682 ;../_fsmul.c:280: return (fl1.f);
   041A 21 12 00            683 	ld	hl,#0x0012
   041D 39                  684 	add	hl,sp
   041E 4E                  685 	ld	c,(hl)
   041F 23                  686 	inc	hl
   0420 46                  687 	ld	b,(hl)
   0421 23                  688 	inc	hl
   0422 5E                  689 	ld	e,(hl)
   0423 23                  690 	inc	hl
   0424 56                  691 	ld	d,(hl)
   0425 69                  692 	ld	l,c
   0426 60                  693 	ld	h,b
   0427                     694 00113$:
   0427 DD F9               695 	ld	sp,ix
   0429 DD E1               696 	pop	ix
   042B C9                  697 	ret
   042C                     698 ___fsmul_end::
                            699 	.area _CODE
                            700 	.area _CABS
