                              1 ;--------------------------------------------------------
                              2 ; File Created by SDCC : free open source ANSI-C Compiler
                              3 ; Version 2.9.4 #5595 (Oct 23 2013) (Mac OS X ppc)
                              4 ; This file was generated Wed Oct 23 12:26:08 2013
                              5 ;--------------------------------------------------------
                              6 	.module acosf
                              7 	.optsdcc -mz80
                              8 	
                              9 ;--------------------------------------------------------
                             10 ; Public variables in this module
                             11 ;--------------------------------------------------------
                             12 	.globl _acosf
                             13 ;--------------------------------------------------------
                             14 ; special function registers
                             15 ;--------------------------------------------------------
                             16 ;--------------------------------------------------------
                             17 ;  ram data
                             18 ;--------------------------------------------------------
                             19 	.area _DATA
                             20 ;--------------------------------------------------------
                             21 ; overlayable items in  ram 
                             22 ;--------------------------------------------------------
                             23 	.area _OVERLAY
                             24 ;--------------------------------------------------------
                             25 ; external initialized ram data
                             26 ;--------------------------------------------------------
                             27 ;--------------------------------------------------------
                             28 ; global & static initialisations
                             29 ;--------------------------------------------------------
                             30 	.area _HOME
                             31 	.area _GSINIT
                             32 	.area _GSFINAL
                             33 	.area _GSINIT
                             34 ;--------------------------------------------------------
                             35 ; Home
                             36 ;--------------------------------------------------------
                             37 	.area _HOME
                             38 	.area _HOME
                             39 ;--------------------------------------------------------
                             40 ; code
                             41 ;--------------------------------------------------------
                             42 	.area _CODE
                             43 ;../acosf.c:26: float acosf(const float x) _FLOAT_FUNC_REENTRANT
                             44 ;	---------------------------------
                             45 ; Function acosf
                             46 ; ---------------------------------
   0000                      47 _acosf_start::
   0000                      48 _acosf:
   0000 DD E5                49 	push	ix
   0002 DD 21 00 00          50 	ld	ix,#0
   0006 DD 39                51 	add	ix,sp
                             52 ;../acosf.c:28: if (x == 1.0) return 0.0;
   0008 21 80 3F             53 	ld	hl,#0x3F80
   000B E5                   54 	push	hl
   000C 21 00 00             55 	ld	hl,#0x0000
   000F E5                   56 	push	hl
   0010 DD 6E 06             57 	ld	l,6 (ix)
   0013 DD 66 07             58 	ld	h,7 (ix)
   0016 E5                   59 	push	hl
   0017 DD 6E 04             60 	ld	l,4 (ix)
   001A DD 66 05             61 	ld	h,5 (ix)
   001D E5                   62 	push	hl
   001E CDr00s00             63 	call	___fseq
   0021 F1                   64 	pop	af
   0022 F1                   65 	pop	af
   0023 F1                   66 	pop	af
   0024 F1                   67 	pop	af
   0025 AF                   68 	xor	a,a
   0026 B5                   69 	or	a,l
   0027 28 08                70 	jr	Z,00108$
   0029 21 00 00             71 	ld	hl,#0x0000
   002C 5D                   72 	ld	e,l
   002D 54                   73 	ld	d,h
   002E C3r8Cs00             74 	jp	00110$
   0031                      75 00108$:
                             76 ;../acosf.c:29: else if (x ==-1.0) return PI;
   0031 21 80 BF             77 	ld	hl,#0xBF80
   0034 E5                   78 	push	hl
   0035 21 00 00             79 	ld	hl,#0x0000
   0038 E5                   80 	push	hl
   0039 DD 6E 06             81 	ld	l,6 (ix)
   003C DD 66 07             82 	ld	h,7 (ix)
   003F E5                   83 	push	hl
   0040 DD 6E 04             84 	ld	l,4 (ix)
   0043 DD 66 05             85 	ld	h,5 (ix)
   0046 E5                   86 	push	hl
   0047 CDr00s00             87 	call	___fseq
   004A F1                   88 	pop	af
   004B F1                   89 	pop	af
   004C F1                   90 	pop	af
   004D F1                   91 	pop	af
   004E AF                   92 	xor	a,a
   004F B5                   93 	or	a,l
   0050 28 08                94 	jr	Z,00105$
   0052 21 DB 0F             95 	ld	hl,#0x0FDB
   0055 11 49 40             96 	ld	de,#0x4049
   0058 18 32                97 	jr	00110$
   005A                      98 00105$:
                             99 ;../acosf.c:30: else if (x == 0.0) return HALF_PI;
   005A DD 7E 04            100 	ld	a,4 (ix)
   005D DD B6 05            101 	or	a,5 (ix)
   0060 DD B6 06            102 	or	a,6 (ix)
   0063 DD B6 07            103 	or	a,7 (ix)
   0066 20 08               104 	jr	NZ,00102$
   0068 21 DB 0F            105 	ld	hl,#0x0FDB
   006B 11 C9 3F            106 	ld	de,#0x3FC9
   006E 18 1C               107 	jr	00110$
   0070                     108 00102$:
                            109 ;../acosf.c:31: else               return asincosf(x, true);
   0070 3E 01               110 	ld	a,#0x01
   0072 F5                  111 	push	af
   0073 33                  112 	inc	sp
   0074 DD 6E 06            113 	ld	l,6 (ix)
   0077 DD 66 07            114 	ld	h,7 (ix)
   007A E5                  115 	push	hl
   007B DD 6E 04            116 	ld	l,4 (ix)
   007E DD 66 05            117 	ld	h,5 (ix)
   0081 E5                  118 	push	hl
   0082 CDr00s00            119 	call	_asincosf
   0085 F1                  120 	pop	af
   0086 F1                  121 	pop	af
   0087 33                  122 	inc	sp
   0088 44                  123 	ld	b,h
   0089 4D                  124 	ld	c,l
   008A 69                  125 	ld	l,c
   008B 60                  126 	ld	h,b
   008C                     127 00110$:
   008C DD E1               128 	pop	ix
   008E C9                  129 	ret
   008F                     130 _acosf_end::
                            131 	.area _CODE
                            132 	.area _CABS
