                              1 ;--------------------------------------------------------
                              2 ; File Created by SDCC : free open source ANSI-C Compiler
                              3 ; Version 2.9.4 #5595 (Oct 23 2013) (Mac OS X ppc)
                              4 ; This file was generated Wed Oct 23 12:26:07 2013
                              5 ;--------------------------------------------------------
                              6 	.module logf
                              7 	.optsdcc -mz80
                              8 	
                              9 ;--------------------------------------------------------
                             10 ; Public variables in this module
                             11 ;--------------------------------------------------------
                             12 	.globl _logf
                             13 ;--------------------------------------------------------
                             14 ; special function registers
                             15 ;--------------------------------------------------------
                             16 ;--------------------------------------------------------
                             17 ;  ram data
                             18 ;--------------------------------------------------------
                             19 	.area _DATA
                             20 ;--------------------------------------------------------
                             21 ; overlayable items in  ram 
                             22 ;--------------------------------------------------------
                             23 	.area _OVERLAY
                             24 ;--------------------------------------------------------
                             25 ; external initialized ram data
                             26 ;--------------------------------------------------------
                             27 ;--------------------------------------------------------
                             28 ; global & static initialisations
                             29 ;--------------------------------------------------------
                             30 	.area _HOME
                             31 	.area _GSINIT
                             32 	.area _GSFINAL
                             33 	.area _GSINIT
                             34 ;--------------------------------------------------------
                             35 ; Home
                             36 ;--------------------------------------------------------
                             37 	.area _HOME
                             38 	.area _HOME
                             39 ;--------------------------------------------------------
                             40 ; code
                             41 ;--------------------------------------------------------
                             42 	.area _CODE
                             43 ;../logf.c:202: float logf(const float x) _FLOAT_FUNC_REENTRANT
                             44 ;	---------------------------------
                             45 ; Function logf
                             46 ; ---------------------------------
   0000                      47 _logf_start::
   0000                      48 _logf:
   0000 DD E5                49 	push	ix
   0002 DD 21 00 00          50 	ld	ix,#0
   0006 DD 39                51 	add	ix,sp
   0008 21 E2 FF             52 	ld	hl,#-30
   000B 39                   53 	add	hl,sp
   000C F9                   54 	ld	sp,hl
                             55 ;../logf.c:212: if (x<=0.0)
   000D 21 00 00             56 	ld	hl,#0x0000
   0010 E5                   57 	push	hl
   0011 21 00 00             58 	ld	hl,#0x0000
   0014 E5                   59 	push	hl
   0015 DD 6E 06             60 	ld	l,6 (ix)
   0018 DD 66 07             61 	ld	h,7 (ix)
   001B E5                   62 	push	hl
   001C DD 6E 04             63 	ld	l,4 (ix)
   001F DD 66 05             64 	ld	h,5 (ix)
   0022 E5                   65 	push	hl
   0023 CDr00s00             66 	call	___fsgt
   0026 F1                   67 	pop	af
   0027 F1                   68 	pop	af
   0028 F1                   69 	pop	af
   0029 F1                   70 	pop	af
   002A AF                   71 	xor	a,a
   002B B5                   72 	or	a,l
   002C 20 14                73 	jr	NZ,00102$
                             74 ;../logf.c:214: errno=EDOM;
   002E FD 21r00s00          75 	ld	iy,#_errno
   0032 FD 36 00 21          76 	ld	0 (iy),#0x21
   0036 FD 36 01 00          77 	ld	1 (iy),#0x00
                             78 ;../logf.c:215: return 0.0;
   003A 21 00 00             79 	ld	hl,#0x0000
   003D 5D                   80 	ld	e,l
   003E 54                   81 	ld	d,h
   003F C3rCCs02             82 	jp	00106$
   0042                      83 00102$:
                             84 ;../logf.c:217: f=frexpf(x, &n);
   0042 21 04 00             85 	ld	hl,#0x0004
   0045 39                   86 	add	hl,sp
   0046 E5                   87 	push	hl
   0047 DD 6E 06             88 	ld	l,6 (ix)
   004A DD 66 07             89 	ld	h,7 (ix)
   004D E5                   90 	push	hl
   004E DD 6E 04             91 	ld	l,4 (ix)
   0051 DD 66 05             92 	ld	h,5 (ix)
   0054 E5                   93 	push	hl
   0055 CDr00s00             94 	call	_frexpf
   0058 F1                   95 	pop	af
   0059 F1                   96 	pop	af
   005A F1                   97 	pop	af
   005B 44                   98 	ld	b,h
   005C DD 75 F8             99 	ld	-8 (ix),l
   005F DD 70 F9            100 	ld	-7 (ix),b
   0062 DD 73 FA            101 	ld	-6 (ix),e
   0065 DD 72 FB            102 	ld	-5 (ix),d
                            103 ;../logf.c:218: znum=f-0.5;
   0068 21 00 3F            104 	ld	hl,#0x3F00
   006B E5                  105 	push	hl
   006C 21 00 00            106 	ld	hl,#0x0000
   006F E5                  107 	push	hl
   0070 DD 6E FA            108 	ld	l,-6 (ix)
   0073 DD 66 FB            109 	ld	h,-5 (ix)
   0076 E5                  110 	push	hl
   0077 DD 6E F8            111 	ld	l,-8 (ix)
   007A DD 66 F9            112 	ld	h,-7 (ix)
   007D E5                  113 	push	hl
   007E CDr00s00            114 	call	___fssub
   0081 F1                  115 	pop	af
   0082 F1                  116 	pop	af
   0083 F1                  117 	pop	af
   0084 F1                  118 	pop	af
   0085 44                  119 	ld	b,h
   0086 DD 75 F0            120 	ld	-16 (ix),l
   0089 DD 70 F1            121 	ld	-15 (ix),b
   008C DD 73 F2            122 	ld	-14 (ix),e
   008F DD 72 F3            123 	ld	-13 (ix),d
                            124 ;../logf.c:219: if (f>C0)
   0092 21 35 3F            125 	ld	hl,#0x3F35
   0095 E5                  126 	push	hl
   0096 21 F3 04            127 	ld	hl,#0x04F3
   0099 E5                  128 	push	hl
   009A DD 6E FA            129 	ld	l,-6 (ix)
   009D DD 66 FB            130 	ld	h,-5 (ix)
   00A0 E5                  131 	push	hl
   00A1 DD 6E F8            132 	ld	l,-8 (ix)
   00A4 DD 66 F9            133 	ld	h,-7 (ix)
   00A7 E5                  134 	push	hl
   00A8 CDr00s00            135 	call	___fsgt
   00AB F1                  136 	pop	af
   00AC F1                  137 	pop	af
   00AD F1                  138 	pop	af
   00AE F1                  139 	pop	af
   00AF AF                  140 	xor	a,a
   00B0 B5                  141 	or	a,l
   00B1 CAr12s01            142 	jp	Z,00104$
                            143 ;../logf.c:221: znum-=0.5;
   00B4 21 00 3F            144 	ld	hl,#0x3F00
   00B7 E5                  145 	push	hl
   00B8 21 00 00            146 	ld	hl,#0x0000
   00BB E5                  147 	push	hl
   00BC DD 6E F2            148 	ld	l,-14 (ix)
   00BF DD 66 F3            149 	ld	h,-13 (ix)
   00C2 E5                  150 	push	hl
   00C3 DD 6E F0            151 	ld	l,-16 (ix)
   00C6 DD 66 F1            152 	ld	h,-15 (ix)
   00C9 E5                  153 	push	hl
   00CA CDr00s00            154 	call	___fssub
   00CD F1                  155 	pop	af
   00CE F1                  156 	pop	af
   00CF F1                  157 	pop	af
   00D0 F1                  158 	pop	af
   00D1 44                  159 	ld	b,h
   00D2 DD 75 F0            160 	ld	-16 (ix),l
   00D5 DD 70 F1            161 	ld	-15 (ix),b
   00D8 DD 73 F2            162 	ld	-14 (ix),e
   00DB DD 72 F3            163 	ld	-13 (ix),d
                            164 ;../logf.c:222: zden=(f*0.5)+0.5;
   00DE DD 6E FA            165 	ld	l,-6 (ix)
   00E1 DD 66 FB            166 	ld	h,-5 (ix)
   00E4 E5                  167 	push	hl
   00E5 DD 6E F8            168 	ld	l,-8 (ix)
   00E8 DD 66 F9            169 	ld	h,-7 (ix)
   00EB E5                  170 	push	hl
   00EC 21 00 3F            171 	ld	hl,#0x3F00
   00EF E5                  172 	push	hl
   00F0 21 00 00            173 	ld	hl,#0x0000
   00F3 E5                  174 	push	hl
   00F4 CDr00s00            175 	call	___fsmul
   00F7 F1                  176 	pop	af
   00F8 F1                  177 	pop	af
   00F9 F1                  178 	pop	af
   00FA F1                  179 	pop	af
   00FB 44                  180 	ld	b,h
   00FC 4D                  181 	ld	c,l
   00FD 21 00 3F            182 	ld	hl,#0x3F00
   0100 E5                  183 	push	hl
   0101 21 00 00            184 	ld	hl,#0x0000
   0104 E5                  185 	push	hl
   0105 D5                  186 	push	de
   0106 C5                  187 	push	bc
   0107 CDr00s00            188 	call	___fsadd
   010A F1                  189 	pop	af
   010B F1                  190 	pop	af
   010C F1                  191 	pop	af
   010D F1                  192 	pop	af
   010E 44                  193 	ld	b,h
   010F 4D                  194 	ld	c,l
   0110 18 53               195 	jr	00105$
   0112                     196 00104$:
                            197 ;../logf.c:226: n--;
   0112 DD 6E E6            198 	ld	l,-26 (ix)
   0115 DD 66 E7            199 	ld	h,-25 (ix)
   0118 2B                  200 	dec	hl
   0119 DD 75 E6            201 	ld	-26 (ix),l
   011C DD 74 E7            202 	ld	-25 (ix),h
                            203 ;../logf.c:227: zden=znum*0.5+0.5;
   011F DD 6E F2            204 	ld	l,-14 (ix)
   0122 DD 66 F3            205 	ld	h,-13 (ix)
   0125 E5                  206 	push	hl
   0126 DD 6E F0            207 	ld	l,-16 (ix)
   0129 DD 66 F1            208 	ld	h,-15 (ix)
   012C E5                  209 	push	hl
   012D 21 00 3F            210 	ld	hl,#0x3F00
   0130 E5                  211 	push	hl
   0131 21 00 00            212 	ld	hl,#0x0000
   0134 E5                  213 	push	hl
   0135 CDr00s00            214 	call	___fsmul
   0138 F1                  215 	pop	af
   0139 F1                  216 	pop	af
   013A F1                  217 	pop	af
   013B F1                  218 	pop	af
   013C 44                  219 	ld	b,h
   013D 4D                  220 	ld	c,l
   013E 21 00 3F            221 	ld	hl,#0x3F00
   0141 E5                  222 	push	hl
   0142 21 00 00            223 	ld	hl,#0x0000
   0145 E5                  224 	push	hl
   0146 D5                  225 	push	de
   0147 C5                  226 	push	bc
   0148 CDr00s00            227 	call	___fsadd
   014B F1                  228 	pop	af
   014C F1                  229 	pop	af
   014D F1                  230 	pop	af
   014E F1                  231 	pop	af
   014F DD 72 EF            232 	ld	-17 (ix),d
   0152 DD 73 EE            233 	ld	-18 (ix),e
   0155 DD 74 ED            234 	ld	-19 (ix),h
   0158 DD 75 EC            235 	ld	-20 (ix),l
   015B 4D                  236 	ld	c, l
   015C DD 46 ED            237 	ld	b,-19 (ix)
   015F DD 5E EE            238 	ld	e,-18 (ix)
   0162 DD 56 EF            239 	ld	d,-17 (ix)
   0165                     240 00105$:
                            241 ;../logf.c:229: z=znum/zden;
   0165 D5                  242 	push	de
   0166 C5                  243 	push	bc
   0167 DD 6E F2            244 	ld	l,-14 (ix)
   016A DD 66 F3            245 	ld	h,-13 (ix)
   016D E5                  246 	push	hl
   016E DD 6E F0            247 	ld	l,-16 (ix)
   0171 DD 66 F1            248 	ld	h,-15 (ix)
   0174 E5                  249 	push	hl
   0175 CDr00s00            250 	call	___fsdiv
   0178 F1                  251 	pop	af
   0179 F1                  252 	pop	af
   017A F1                  253 	pop	af
   017B F1                  254 	pop	af
   017C 44                  255 	ld	b,h
   017D DD 75 F4            256 	ld	-12 (ix),l
   0180 DD 70 F5            257 	ld	-11 (ix),b
   0183 DD 73 F6            258 	ld	-10 (ix),e
   0186 DD 72 F7            259 	ld	-9 (ix),d
                            260 ;../logf.c:230: w=z*z;
   0189 DD 6E F6            261 	ld	l,-10 (ix)
   018C DD 66 F7            262 	ld	h,-9 (ix)
   018F E5                  263 	push	hl
   0190 DD 6E F4            264 	ld	l,-12 (ix)
   0193 DD 66 F5            265 	ld	h,-11 (ix)
   0196 E5                  266 	push	hl
   0197 DD 6E F6            267 	ld	l,-10 (ix)
   019A DD 66 F7            268 	ld	h,-9 (ix)
   019D E5                  269 	push	hl
   019E DD 6E F4            270 	ld	l,-12 (ix)
   01A1 DD 66 F5            271 	ld	h,-11 (ix)
   01A4 E5                  272 	push	hl
   01A5 CDr00s00            273 	call	___fsmul
   01A8 F1                  274 	pop	af
   01A9 F1                  275 	pop	af
   01AA F1                  276 	pop	af
   01AB F1                  277 	pop	af
   01AC 44                  278 	ld	b,h
   01AD 4D                  279 	ld	c,l
                            280 ;../logf.c:232: Rz=z+z*(w*A(w)/B(w));
   01AE C5                  281 	push	bc
   01AF D5                  282 	push	de
   01B0 D5                  283 	push	de
   01B1 C5                  284 	push	bc
   01B2 21 0D BF            285 	ld	hl,#0xBF0D
   01B5 E5                  286 	push	hl
   01B6 21 3D 7E            287 	ld	hl,#0x7E3D
   01B9 E5                  288 	push	hl
   01BA CDr00s00            289 	call	___fsmul
   01BD F1                  290 	pop	af
   01BE F1                  291 	pop	af
   01BF F1                  292 	pop	af
   01C0 F1                  293 	pop	af
   01C1 DD 72 E5            294 	ld	-27 (ix),d
   01C4 DD 73 E4            295 	ld	-28 (ix),e
   01C7 DD 74 E3            296 	ld	-29 (ix),h
   01CA DD 75 E2            297 	ld	-30 (ix),l
   01CD D1                  298 	pop	de
   01CE C1                  299 	pop	bc
   01CF 21 D4 C0            300 	ld	hl,#0xC0D4
   01D2 E5                  301 	push	hl
   01D3 21 3A 3F            302 	ld	hl,#0x3F3A
   01D6 E5                  303 	push	hl
   01D7 D5                  304 	push	de
   01D8 C5                  305 	push	bc
   01D9 CDr00s00            306 	call	___fsadd
   01DC F1                  307 	pop	af
   01DD F1                  308 	pop	af
   01DE F1                  309 	pop	af
   01DF F1                  310 	pop	af
   01E0 44                  311 	ld	b,h
   01E1 4D                  312 	ld	c,l
   01E2 D5                  313 	push	de
   01E3 C5                  314 	push	bc
   01E4 DD 6E E4            315 	ld	l,-28 (ix)
   01E7 DD 66 E5            316 	ld	h,-27 (ix)
   01EA E5                  317 	push	hl
   01EB DD 6E E2            318 	ld	l,-30 (ix)
   01EE DD 66 E3            319 	ld	h,-29 (ix)
   01F1 E5                  320 	push	hl
   01F2 CDr00s00            321 	call	___fsdiv
   01F5 F1                  322 	pop	af
   01F6 F1                  323 	pop	af
   01F7 F1                  324 	pop	af
   01F8 F1                  325 	pop	af
   01F9 44                  326 	ld	b,h
   01FA 4D                  327 	ld	c,l
   01FB D5                  328 	push	de
   01FC C5                  329 	push	bc
   01FD DD 6E F6            330 	ld	l,-10 (ix)
   0200 DD 66 F7            331 	ld	h,-9 (ix)
   0203 E5                  332 	push	hl
   0204 DD 6E F4            333 	ld	l,-12 (ix)
   0207 DD 66 F5            334 	ld	h,-11 (ix)
   020A E5                  335 	push	hl
   020B CDr00s00            336 	call	___fsmul
   020E F1                  337 	pop	af
   020F F1                  338 	pop	af
   0210 F1                  339 	pop	af
   0211 F1                  340 	pop	af
   0212 44                  341 	ld	b,h
   0213 4D                  342 	ld	c,l
   0214 D5                  343 	push	de
   0215 C5                  344 	push	bc
   0216 DD 6E F6            345 	ld	l,-10 (ix)
   0219 DD 66 F7            346 	ld	h,-9 (ix)
   021C E5                  347 	push	hl
   021D DD 6E F4            348 	ld	l,-12 (ix)
   0220 DD 66 F5            349 	ld	h,-11 (ix)
   0223 E5                  350 	push	hl
   0224 CDr00s00            351 	call	___fsadd
   0227 F1                  352 	pop	af
   0228 F1                  353 	pop	af
   0229 F1                  354 	pop	af
   022A F1                  355 	pop	af
   022B 44                  356 	ld	b,h
   022C DD 75 FC            357 	ld	-4 (ix),l
   022F DD 70 FD            358 	ld	-3 (ix),b
   0232 DD 73 FE            359 	ld	-2 (ix),e
   0235 DD 72 FF            360 	ld	-1 (ix),d
                            361 ;../logf.c:233: xn=n;
   0238 DD 6E E6            362 	ld	l,-26 (ix)
   023B DD 66 E7            363 	ld	h,-25 (ix)
   023E E5                  364 	push	hl
   023F CDr00s00            365 	call	___sint2fs
   0242 F1                  366 	pop	af
   0243 44                  367 	ld	b,h
   0244 DD 75 E8            368 	ld	-24 (ix),l
   0247 DD 70 E9            369 	ld	-23 (ix),b
   024A DD 73 EA            370 	ld	-22 (ix),e
   024D DD 72 EB            371 	ld	-21 (ix),d
                            372 ;../logf.c:234: return ((xn*C2+Rz)+xn*C1);
   0250 DD 6E EA            373 	ld	l,-22 (ix)
   0253 DD 66 EB            374 	ld	h,-21 (ix)
   0256 E5                  375 	push	hl
   0257 DD 6E E8            376 	ld	l,-24 (ix)
   025A DD 66 E9            377 	ld	h,-23 (ix)
   025D E5                  378 	push	hl
   025E 21 5E B9            379 	ld	hl,#0xB95E
   0261 E5                  380 	push	hl
   0262 21 83 80            381 	ld	hl,#0x8083
   0265 E5                  382 	push	hl
   0266 CDr00s00            383 	call	___fsmul
   0269 F1                  384 	pop	af
   026A F1                  385 	pop	af
   026B F1                  386 	pop	af
   026C F1                  387 	pop	af
   026D 44                  388 	ld	b,h
   026E 4D                  389 	ld	c,l
   026F DD 6E FE            390 	ld	l,-2 (ix)
   0272 DD 66 FF            391 	ld	h,-1 (ix)
   0275 E5                  392 	push	hl
   0276 DD 6E FC            393 	ld	l,-4 (ix)
   0279 DD 66 FD            394 	ld	h,-3 (ix)
   027C E5                  395 	push	hl
   027D D5                  396 	push	de
   027E C5                  397 	push	bc
   027F CDr00s00            398 	call	___fsadd
   0282 F1                  399 	pop	af
   0283 F1                  400 	pop	af
   0284 F1                  401 	pop	af
   0285 F1                  402 	pop	af
   0286 DD 72 E5            403 	ld	-27 (ix),d
   0289 DD 73 E4            404 	ld	-28 (ix),e
   028C DD 74 E3            405 	ld	-29 (ix),h
   028F DD 75 E2            406 	ld	-30 (ix),l
   0292 DD 6E EA            407 	ld	l,-22 (ix)
   0295 DD 66 EB            408 	ld	h,-21 (ix)
   0298 E5                  409 	push	hl
   0299 DD 6E E8            410 	ld	l,-24 (ix)
   029C DD 66 E9            411 	ld	h,-23 (ix)
   029F E5                  412 	push	hl
   02A0 21 31 3F            413 	ld	hl,#0x3F31
   02A3 E5                  414 	push	hl
   02A4 21 00 80            415 	ld	hl,#0x8000
   02A7 E5                  416 	push	hl
   02A8 CDr00s00            417 	call	___fsmul
   02AB F1                  418 	pop	af
   02AC F1                  419 	pop	af
   02AD F1                  420 	pop	af
   02AE F1                  421 	pop	af
   02AF 44                  422 	ld	b,h
   02B0 4D                  423 	ld	c,l
   02B1 D5                  424 	push	de
   02B2 C5                  425 	push	bc
   02B3 DD 6E E4            426 	ld	l,-28 (ix)
   02B6 DD 66 E5            427 	ld	h,-27 (ix)
   02B9 E5                  428 	push	hl
   02BA DD 6E E2            429 	ld	l,-30 (ix)
   02BD DD 66 E3            430 	ld	h,-29 (ix)
   02C0 E5                  431 	push	hl
   02C1 CDr00s00            432 	call	___fsadd
   02C4 F1                  433 	pop	af
   02C5 F1                  434 	pop	af
   02C6 F1                  435 	pop	af
   02C7 F1                  436 	pop	af
   02C8 44                  437 	ld	b,h
   02C9 4D                  438 	ld	c,l
   02CA 69                  439 	ld	l,c
   02CB 60                  440 	ld	h,b
   02CC                     441 00106$:
   02CC DD F9               442 	ld	sp,ix
   02CE DD E1               443 	pop	ix
   02D0 C9                  444 	ret
   02D1                     445 _logf_end::
                            446 	.area _CODE
                            447 	.area _CABS
