                              1 ;--------------------------------------------------------
                              2 ; File Created by SDCC : free open source ANSI-C Compiler
                              3 ; Version 2.9.4 #5595 (Oct 23 2013) (Mac OS X ppc)
                              4 ; This file was generated Wed Oct 23 12:26:08 2013
                              5 ;--------------------------------------------------------
                              6 	.module sincoshf
                              7 	.optsdcc -mz80
                              8 	
                              9 ;--------------------------------------------------------
                             10 ; Public variables in this module
                             11 ;--------------------------------------------------------
                             12 	.globl _sincoshf
                             13 ;--------------------------------------------------------
                             14 ; special function registers
                             15 ;--------------------------------------------------------
                             16 ;--------------------------------------------------------
                             17 ;  ram data
                             18 ;--------------------------------------------------------
                             19 	.area _DATA
                             20 ;--------------------------------------------------------
                             21 ; overlayable items in  ram 
                             22 ;--------------------------------------------------------
                             23 	.area _OVERLAY
                             24 ;--------------------------------------------------------
                             25 ; external initialized ram data
                             26 ;--------------------------------------------------------
                             27 ;--------------------------------------------------------
                             28 ; global & static initialisations
                             29 ;--------------------------------------------------------
                             30 	.area _HOME
                             31 	.area _GSINIT
                             32 	.area _GSFINAL
                             33 	.area _GSINIT
                             34 ;--------------------------------------------------------
                             35 ; Home
                             36 ;--------------------------------------------------------
                             37 	.area _HOME
                             38 	.area _HOME
                             39 ;--------------------------------------------------------
                             40 ; code
                             41 ;--------------------------------------------------------
                             42 	.area _CODE
                             43 ;../sincoshf.c:46: float sincoshf(const float x, const int iscosh)
                             44 ;	---------------------------------
                             45 ; Function sincoshf
                             46 ; ---------------------------------
   0000                      47 _sincoshf_start::
   0000                      48 _sincoshf:
   0000 DD E5                49 	push	ix
   0002 DD 21 00 00          50 	ld	ix,#0
   0006 DD 39                51 	add	ix,sp
   0008 21 EF FF             52 	ld	hl,#-17
   000B 39                   53 	add	hl,sp
   000C F9                   54 	ld	sp,hl
                             55 ;../sincoshf.c:51: if (x<0.0) { y=-x; sign=1; }
   000D 21 00 00             56 	ld	hl,#0x0000
   0010 E5                   57 	push	hl
   0011 21 00 00             58 	ld	hl,#0x0000
   0014 E5                   59 	push	hl
   0015 DD 6E 06             60 	ld	l,6 (ix)
   0018 DD 66 07             61 	ld	h,7 (ix)
   001B E5                   62 	push	hl
   001C DD 6E 04             63 	ld	l,4 (ix)
   001F DD 66 05             64 	ld	h,5 (ix)
   0022 E5                   65 	push	hl
   0023 CDr00s00             66 	call	___fslt
   0026 F1                   67 	pop	af
   0027 F1                   68 	pop	af
   0028 F1                   69 	pop	af
   0029 F1                   70 	pop	af
   002A AF                   71 	xor	a,a
   002B B5                   72 	or	a,l
   002C 28 21                73 	jr	Z,00102$
   002E DD 7E 07             74 	ld	a,7 (ix)
   0031 EE 80                75 	xor	a,#0x80
   0033 57                   76 	ld	d,a
   0034 DD 4E 04             77 	ld	c,4 (ix)
   0037 DD 46 05             78 	ld	b,5 (ix)
   003A DD 5E 06             79 	ld	e,6 (ix)
   003D DD 71 FC             80 	ld	-4 (ix),c
   0040 DD 70 FD             81 	ld	-3 (ix),b
   0043 DD 73 FE             82 	ld	-2 (ix),e
   0046 DD 72 FF             83 	ld	-1 (ix),d
   0049 DD 36 F3 01          84 	ld	-13 (ix),#0x01
   004D 18 1C                85 	jr	00103$
   004F                      86 00102$:
                             87 ;../sincoshf.c:52: else { y=x;  sign=0; }
   004F DD 7E 04             88 	ld	a,4 (ix)
   0052 DD 77 FC             89 	ld	-4 (ix),a
   0055 DD 7E 05             90 	ld	a,5 (ix)
   0058 DD 77 FD             91 	ld	-3 (ix),a
   005B DD 7E 06             92 	ld	a,6 (ix)
   005E DD 77 FE             93 	ld	-2 (ix),a
   0061 DD 7E 07             94 	ld	a,7 (ix)
   0064 DD 77 FF             95 	ld	-1 (ix),a
   0067 DD 36 F3 00          96 	ld	-13 (ix),#0x00
   006B                      97 00103$:
                             98 ;../sincoshf.c:54: if ((y>1.0) || iscosh)
   006B 21 80 3F             99 	ld	hl,#0x3F80
   006E E5                  100 	push	hl
   006F 21 00 00            101 	ld	hl,#0x0000
   0072 E5                  102 	push	hl
   0073 DD 6E FE            103 	ld	l,-2 (ix)
   0076 DD 66 FF            104 	ld	h,-1 (ix)
   0079 E5                  105 	push	hl
   007A DD 6E FC            106 	ld	l,-4 (ix)
   007D DD 66 FD            107 	ld	h,-3 (ix)
   0080 E5                  108 	push	hl
   0081 CDr00s00            109 	call	___fsgt
   0084 F1                  110 	pop	af
   0085 F1                  111 	pop	af
   0086 F1                  112 	pop	af
   0087 F1                  113 	pop	af
   0088 AF                  114 	xor	a,a
   0089 B5                  115 	or	a,l
   008A 20 09               116 	jr	NZ,00117$
   008C DD 7E 08            117 	ld	a,8 (ix)
   008F DD B6 09            118 	or	a,9 (ix)
   0092 CAr5As02            119 	jp	Z,00118$
   0095                     120 00117$:
                            121 ;../sincoshf.c:56: if(y>YBAR)
   0095 21 10 41            122 	ld	hl,#0x4110
   0098 E5                  123 	push	hl
   0099 21 00 00            124 	ld	hl,#0x0000
   009C E5                  125 	push	hl
   009D DD 6E FE            126 	ld	l,-2 (ix)
   00A0 DD 66 FF            127 	ld	h,-1 (ix)
   00A3 E5                  128 	push	hl
   00A4 DD 6E FC            129 	ld	l,-4 (ix)
   00A7 DD 66 FD            130 	ld	h,-3 (ix)
   00AA E5                  131 	push	hl
   00AB CDr00s00            132 	call	___fsgt
   00AE F1                  133 	pop	af
   00AF F1                  134 	pop	af
   00B0 F1                  135 	pop	af
   00B1 F1                  136 	pop	af
   00B2 AF                  137 	xor	a,a
   00B3 B5                  138 	or	a,l
   00B4 CAr87s01            139 	jp	Z,00110$
                            140 ;../sincoshf.c:58: w=y-K1;
   00B7 21 31 3F            141 	ld	hl,#0x3F31
   00BA E5                  142 	push	hl
   00BB 21 00 73            143 	ld	hl,#0x7300
   00BE E5                  144 	push	hl
   00BF DD 6E FE            145 	ld	l,-2 (ix)
   00C2 DD 66 FF            146 	ld	h,-1 (ix)
   00C5 E5                  147 	push	hl
   00C6 DD 6E FC            148 	ld	l,-4 (ix)
   00C9 DD 66 FD            149 	ld	h,-3 (ix)
   00CC E5                  150 	push	hl
   00CD CDr00s00            151 	call	___fssub
   00D0 F1                  152 	pop	af
   00D1 F1                  153 	pop	af
   00D2 F1                  154 	pop	af
   00D3 F1                  155 	pop	af
   00D4 44                  156 	ld	b,h
   00D5 DD 75 F8            157 	ld	-8 (ix),l
   00D8 DD 70 F9            158 	ld	-7 (ix),b
   00DB DD 73 FA            159 	ld	-6 (ix),e
   00DE DD 72 FB            160 	ld	-5 (ix),d
                            161 ;../sincoshf.c:59: if (w>WMAX)
   00E1 21 33 42            162 	ld	hl,#0x4233
   00E4 E5                  163 	push	hl
   00E5 21 CF BD            164 	ld	hl,#0xBDCF
   00E8 E5                  165 	push	hl
   00E9 DD 6E FA            166 	ld	l,-6 (ix)
   00EC DD 66 FB            167 	ld	h,-5 (ix)
   00EF E5                  168 	push	hl
   00F0 DD 6E F8            169 	ld	l,-8 (ix)
   00F3 DD 66 F9            170 	ld	h,-7 (ix)
   00F6 E5                  171 	push	hl
   00F7 CDr00s00            172 	call	___fsgt
   00FA F1                  173 	pop	af
   00FB F1                  174 	pop	af
   00FC F1                  175 	pop	af
   00FD F1                  176 	pop	af
   00FE AF                  177 	xor	a,a
   00FF B5                  178 	or	a,l
   0100 28 1F               179 	jr	Z,00105$
                            180 ;../sincoshf.c:61: errno=ERANGE;
   0102 FD 21r00s00         181 	ld	iy,#_errno
   0106 FD 36 00 22         182 	ld	0 (iy),#0x22
   010A FD 36 01 00         183 	ld	1 (iy),#0x00
                            184 ;../sincoshf.c:62: z=HUGE_VALF;
   010E DD 36 F4 FF         185 	ld	-12 (ix),#0xFF
   0112 DD 36 F5 FF         186 	ld	-11 (ix),#0xFF
   0116 DD 36 F6 7F         187 	ld	-10 (ix),#0x7F
   011A DD 36 F7 7F         188 	ld	-9 (ix),#0x7F
   011E C3r36s02            189 	jp	00111$
   0121                     190 00105$:
                            191 ;../sincoshf.c:66: z=expf(w);
   0121 DD 6E FA            192 	ld	l,-6 (ix)
   0124 DD 66 FB            193 	ld	h,-5 (ix)
   0127 E5                  194 	push	hl
   0128 DD 6E F8            195 	ld	l,-8 (ix)
   012B DD 66 F9            196 	ld	h,-7 (ix)
   012E E5                  197 	push	hl
   012F CDr00s00            198 	call	_expf
   0132 F1                  199 	pop	af
   0133 F1                  200 	pop	af
   0134 44                  201 	ld	b,h
   0135 DD 75 F4            202 	ld	-12 (ix),l
   0138 DD 70 F5            203 	ld	-11 (ix),b
   013B DD 73 F6            204 	ld	-10 (ix),e
   013E DD 72 F7            205 	ld	-9 (ix),d
                            206 ;../sincoshf.c:67: z+=K3*z;
   0141 DD 6E F6            207 	ld	l,-10 (ix)
   0144 DD 66 F7            208 	ld	h,-9 (ix)
   0147 E5                  209 	push	hl
   0148 DD 6E F4            210 	ld	l,-12 (ix)
   014B DD 66 F5            211 	ld	h,-11 (ix)
   014E E5                  212 	push	hl
   014F 21 68 37            213 	ld	hl,#0x3768
   0152 E5                  214 	push	hl
   0153 21 97 08            215 	ld	hl,#0x0897
   0156 E5                  216 	push	hl
   0157 CDr00s00            217 	call	___fsmul
   015A F1                  218 	pop	af
   015B F1                  219 	pop	af
   015C F1                  220 	pop	af
   015D F1                  221 	pop	af
   015E 44                  222 	ld	b,h
   015F 4D                  223 	ld	c,l
   0160 D5                  224 	push	de
   0161 C5                  225 	push	bc
   0162 DD 6E F6            226 	ld	l,-10 (ix)
   0165 DD 66 F7            227 	ld	h,-9 (ix)
   0168 E5                  228 	push	hl
   0169 DD 6E F4            229 	ld	l,-12 (ix)
   016C DD 66 F5            230 	ld	h,-11 (ix)
   016F E5                  231 	push	hl
   0170 CDr00s00            232 	call	___fsadd
   0173 F1                  233 	pop	af
   0174 F1                  234 	pop	af
   0175 F1                  235 	pop	af
   0176 F1                  236 	pop	af
   0177 44                  237 	ld	b,h
   0178 DD 75 F4            238 	ld	-12 (ix),l
   017B DD 70 F5            239 	ld	-11 (ix),b
   017E DD 73 F6            240 	ld	-10 (ix),e
   0181 DD 72 F7            241 	ld	-9 (ix),d
   0184 C3r36s02            242 	jp	00111$
   0187                     243 00110$:
                            244 ;../sincoshf.c:72: z=expf(y);
   0187 DD 6E FE            245 	ld	l,-2 (ix)
   018A DD 66 FF            246 	ld	h,-1 (ix)
   018D E5                  247 	push	hl
   018E DD 6E FC            248 	ld	l,-4 (ix)
   0191 DD 66 FD            249 	ld	h,-3 (ix)
   0194 E5                  250 	push	hl
   0195 CDr00s00            251 	call	_expf
   0198 F1                  252 	pop	af
   0199 F1                  253 	pop	af
   019A 44                  254 	ld	b,h
   019B DD 75 F4            255 	ld	-12 (ix),l
   019E DD 70 F5            256 	ld	-11 (ix),b
   01A1 DD 73 F6            257 	ld	-10 (ix),e
   01A4 DD 72 F7            258 	ld	-9 (ix),d
                            259 ;../sincoshf.c:73: w=1.0/z;
   01A7 DD 6E F6            260 	ld	l,-10 (ix)
   01AA DD 66 F7            261 	ld	h,-9 (ix)
   01AD E5                  262 	push	hl
   01AE DD 6E F4            263 	ld	l,-12 (ix)
   01B1 DD 66 F5            264 	ld	h,-11 (ix)
   01B4 E5                  265 	push	hl
   01B5 21 80 3F            266 	ld	hl,#0x3F80
   01B8 E5                  267 	push	hl
   01B9 21 00 00            268 	ld	hl,#0x0000
   01BC E5                  269 	push	hl
   01BD CDr00s00            270 	call	___fsdiv
   01C0 F1                  271 	pop	af
   01C1 F1                  272 	pop	af
   01C2 F1                  273 	pop	af
   01C3 F1                  274 	pop	af
   01C4 44                  275 	ld	b,h
   01C5 DD 75 F8            276 	ld	-8 (ix),l
   01C8 DD 70 F9            277 	ld	-7 (ix),b
   01CB DD 73 FA            278 	ld	-6 (ix),e
   01CE DD 72 FB            279 	ld	-5 (ix),d
                            280 ;../sincoshf.c:74: if(!iscosh) w=-w;
   01D1 DD 7E 08            281 	ld	a,8 (ix)
   01D4 DD B6 09            282 	or	a,9 (ix)
   01D7 20 1A               283 	jr	NZ,00108$
   01D9 DD 7E FB            284 	ld	a,-5 (ix)
   01DC EE 80               285 	xor	a,#0x80
   01DE DD 77 FB            286 	ld	-5 (ix),a
   01E1 DD 7E F8            287 	ld	a,-8 (ix)
   01E4 DD 77 F8            288 	ld	-8 (ix),a
   01E7 DD 7E F9            289 	ld	a,-7 (ix)
   01EA DD 77 F9            290 	ld	-7 (ix),a
   01ED DD 7E FA            291 	ld	a,-6 (ix)
   01F0 DD 77 FA            292 	ld	-6 (ix),a
   01F3                     293 00108$:
                            294 ;../sincoshf.c:75: z=(z+w)*0.5;
   01F3 DD 6E FA            295 	ld	l,-6 (ix)
   01F6 DD 66 FB            296 	ld	h,-5 (ix)
   01F9 E5                  297 	push	hl
   01FA DD 6E F8            298 	ld	l,-8 (ix)
   01FD DD 66 F9            299 	ld	h,-7 (ix)
   0200 E5                  300 	push	hl
   0201 DD 6E F6            301 	ld	l,-10 (ix)
   0204 DD 66 F7            302 	ld	h,-9 (ix)
   0207 E5                  303 	push	hl
   0208 DD 6E F4            304 	ld	l,-12 (ix)
   020B DD 66 F5            305 	ld	h,-11 (ix)
   020E E5                  306 	push	hl
   020F CDr00s00            307 	call	___fsadd
   0212 F1                  308 	pop	af
   0213 F1                  309 	pop	af
   0214 F1                  310 	pop	af
   0215 F1                  311 	pop	af
   0216 44                  312 	ld	b,h
   0217 4D                  313 	ld	c,l
   0218 D5                  314 	push	de
   0219 C5                  315 	push	bc
   021A 21 00 3F            316 	ld	hl,#0x3F00
   021D E5                  317 	push	hl
   021E 21 00 00            318 	ld	hl,#0x0000
   0221 E5                  319 	push	hl
   0222 CDr00s00            320 	call	___fsmul
   0225 F1                  321 	pop	af
   0226 F1                  322 	pop	af
   0227 F1                  323 	pop	af
   0228 F1                  324 	pop	af
   0229 44                  325 	ld	b,h
   022A DD 75 F4            326 	ld	-12 (ix),l
   022D DD 70 F5            327 	ld	-11 (ix),b
   0230 DD 73 F6            328 	ld	-10 (ix),e
   0233 DD 72 F7            329 	ld	-9 (ix),d
   0236                     330 00111$:
                            331 ;../sincoshf.c:77: if(sign) z=-z;
   0236 AF                  332 	xor	a,a
   0237 DD B6 F3            333 	or	a,-13 (ix)
   023A CArA6s03            334 	jp	Z,00119$
   023D DD 7E F7            335 	ld	a,-9 (ix)
   0240 EE 80               336 	xor	a,#0x80
   0242 DD 77 F7            337 	ld	-9 (ix),a
   0245 DD 7E F4            338 	ld	a,-12 (ix)
   0248 DD 77 F4            339 	ld	-12 (ix),a
   024B DD 7E F5            340 	ld	a,-11 (ix)
   024E DD 77 F5            341 	ld	-11 (ix),a
   0251 DD 7E F6            342 	ld	a,-10 (ix)
   0254 DD 77 F6            343 	ld	-10 (ix),a
   0257 C3rA6s03            344 	jp	00119$
   025A                     345 00118$:
                            346 ;../sincoshf.c:81: if (y<EPS)
   025A 21 80 39            347 	ld	hl,#0x3980
   025D E5                  348 	push	hl
   025E 21 00 00            349 	ld	hl,#0x0000
   0261 E5                  350 	push	hl
   0262 DD 6E FE            351 	ld	l,-2 (ix)
   0265 DD 66 FF            352 	ld	h,-1 (ix)
   0268 E5                  353 	push	hl
   0269 DD 6E FC            354 	ld	l,-4 (ix)
   026C DD 66 FD            355 	ld	h,-3 (ix)
   026F E5                  356 	push	hl
   0270 CDr00s00            357 	call	___fslt
   0273 F1                  358 	pop	af
   0274 F1                  359 	pop	af
   0275 F1                  360 	pop	af
   0276 F1                  361 	pop	af
   0277 AF                  362 	xor	a,a
   0278 B5                  363 	or	a,l
   0279 28 1B               364 	jr	Z,00115$
                            365 ;../sincoshf.c:82: z=x;
   027B DD 7E 04            366 	ld	a,4 (ix)
   027E DD 77 F4            367 	ld	-12 (ix),a
   0281 DD 7E 05            368 	ld	a,5 (ix)
   0284 DD 77 F5            369 	ld	-11 (ix),a
   0287 DD 7E 06            370 	ld	a,6 (ix)
   028A DD 77 F6            371 	ld	-10 (ix),a
   028D DD 7E 07            372 	ld	a,7 (ix)
   0290 DD 77 F7            373 	ld	-9 (ix),a
   0293 C3rA6s03            374 	jp	00119$
   0296                     375 00115$:
                            376 ;../sincoshf.c:85: z=x*x;
   0296 DD 6E 06            377 	ld	l,6 (ix)
   0299 DD 66 07            378 	ld	h,7 (ix)
   029C E5                  379 	push	hl
   029D DD 6E 04            380 	ld	l,4 (ix)
   02A0 DD 66 05            381 	ld	h,5 (ix)
   02A3 E5                  382 	push	hl
   02A4 DD 6E 06            383 	ld	l,6 (ix)
   02A7 DD 66 07            384 	ld	h,7 (ix)
   02AA E5                  385 	push	hl
   02AB DD 6E 04            386 	ld	l,4 (ix)
   02AE DD 66 05            387 	ld	h,5 (ix)
   02B1 E5                  388 	push	hl
   02B2 CDr00s00            389 	call	___fsmul
   02B5 F1                  390 	pop	af
   02B6 F1                  391 	pop	af
   02B7 F1                  392 	pop	af
   02B8 F1                  393 	pop	af
   02B9 44                  394 	ld	b,h
   02BA DD 75 F4            395 	ld	-12 (ix),l
   02BD DD 70 F5            396 	ld	-11 (ix),b
   02C0 DD 73 F6            397 	ld	-10 (ix),e
   02C3 DD 72 F7            398 	ld	-9 (ix),d
                            399 ;../sincoshf.c:86: z=x+x*z*P(z)/Q(z);
   02C6 DD 6E F6            400 	ld	l,-10 (ix)
   02C9 DD 66 F7            401 	ld	h,-9 (ix)
   02CC E5                  402 	push	hl
   02CD DD 6E F4            403 	ld	l,-12 (ix)
   02D0 DD 66 F5            404 	ld	h,-11 (ix)
   02D3 E5                  405 	push	hl
   02D4 DD 6E 06            406 	ld	l,6 (ix)
   02D7 DD 66 07            407 	ld	h,7 (ix)
   02DA E5                  408 	push	hl
   02DB DD 6E 04            409 	ld	l,4 (ix)
   02DE DD 66 05            410 	ld	h,5 (ix)
   02E1 E5                  411 	push	hl
   02E2 CDr00s00            412 	call	___fsmul
   02E5 F1                  413 	pop	af
   02E6 F1                  414 	pop	af
   02E7 F1                  415 	pop	af
   02E8 F1                  416 	pop	af
   02E9 DD 72 F2            417 	ld	-14 (ix),d
   02EC DD 73 F1            418 	ld	-15 (ix),e
   02EF DD 74 F0            419 	ld	-16 (ix),h
   02F2 DD 75 EF            420 	ld	-17 (ix),l
   02F5 DD 6E F6            421 	ld	l,-10 (ix)
   02F8 DD 66 F7            422 	ld	h,-9 (ix)
   02FB E5                  423 	push	hl
   02FC DD 6E F4            424 	ld	l,-12 (ix)
   02FF DD 66 F5            425 	ld	h,-11 (ix)
   0302 E5                  426 	push	hl
   0303 21 42 BE            427 	ld	hl,#0xBE42
   0306 E5                  428 	push	hl
   0307 21 EA E6            429 	ld	hl,#0xE6EA
   030A E5                  430 	push	hl
   030B CDr00s00            431 	call	___fsmul
   030E F1                  432 	pop	af
   030F F1                  433 	pop	af
   0310 F1                  434 	pop	af
   0311 F1                  435 	pop	af
   0312 44                  436 	ld	b,h
   0313 4D                  437 	ld	c,l
   0314 21 E4 C0            438 	ld	hl,#0xC0E4
   0317 E5                  439 	push	hl
   0318 21 F0 69            440 	ld	hl,#0x69F0
   031B E5                  441 	push	hl
   031C D5                  442 	push	de
   031D C5                  443 	push	bc
   031E CDr00s00            444 	call	___fsadd
   0321 F1                  445 	pop	af
   0322 F1                  446 	pop	af
   0323 F1                  447 	pop	af
   0324 F1                  448 	pop	af
   0325 44                  449 	ld	b,h
   0326 4D                  450 	ld	c,l
   0327 D5                  451 	push	de
   0328 C5                  452 	push	bc
   0329 DD 6E F1            453 	ld	l,-15 (ix)
   032C DD 66 F2            454 	ld	h,-14 (ix)
   032F E5                  455 	push	hl
   0330 DD 6E EF            456 	ld	l,-17 (ix)
   0333 DD 66 F0            457 	ld	h,-16 (ix)
   0336 E5                  458 	push	hl
   0337 CDr00s00            459 	call	___fsmul
   033A F1                  460 	pop	af
   033B F1                  461 	pop	af
   033C F1                  462 	pop	af
   033D F1                  463 	pop	af
   033E DD 72 F2            464 	ld	-14 (ix),d
   0341 DD 73 F1            465 	ld	-15 (ix),e
   0344 DD 74 F0            466 	ld	-16 (ix),h
   0347 DD 75 EF            467 	ld	-17 (ix),l
   034A 21 2B C2            468 	ld	hl,#0xC22B
   034D E5                  469 	push	hl
   034E 21 93 4F            470 	ld	hl,#0x4F93
   0351 E5                  471 	push	hl
   0352 DD 6E F6            472 	ld	l,-10 (ix)
   0355 DD 66 F7            473 	ld	h,-9 (ix)
   0358 E5                  474 	push	hl
   0359 DD 6E F4            475 	ld	l,-12 (ix)
   035C DD 66 F5            476 	ld	h,-11 (ix)
   035F E5                  477 	push	hl
   0360 CDr00s00            478 	call	___fsadd
   0363 F1                  479 	pop	af
   0364 F1                  480 	pop	af
   0365 F1                  481 	pop	af
   0366 F1                  482 	pop	af
   0367 44                  483 	ld	b,h
   0368 4D                  484 	ld	c,l
   0369 D5                  485 	push	de
   036A C5                  486 	push	bc
   036B DD 6E F1            487 	ld	l,-15 (ix)
   036E DD 66 F2            488 	ld	h,-14 (ix)
   0371 E5                  489 	push	hl
   0372 DD 6E EF            490 	ld	l,-17 (ix)
   0375 DD 66 F0            491 	ld	h,-16 (ix)
   0378 E5                  492 	push	hl
   0379 CDr00s00            493 	call	___fsdiv
   037C F1                  494 	pop	af
   037D F1                  495 	pop	af
   037E F1                  496 	pop	af
   037F F1                  497 	pop	af
   0380 44                  498 	ld	b,h
   0381 4D                  499 	ld	c,l
   0382 D5                  500 	push	de
   0383 C5                  501 	push	bc
   0384 DD 6E 06            502 	ld	l,6 (ix)
   0387 DD 66 07            503 	ld	h,7 (ix)
   038A E5                  504 	push	hl
   038B DD 6E 04            505 	ld	l,4 (ix)
   038E DD 66 05            506 	ld	h,5 (ix)
   0391 E5                  507 	push	hl
   0392 CDr00s00            508 	call	___fsadd
   0395 F1                  509 	pop	af
   0396 F1                  510 	pop	af
   0397 F1                  511 	pop	af
   0398 F1                  512 	pop	af
   0399 44                  513 	ld	b,h
   039A DD 75 F4            514 	ld	-12 (ix),l
   039D DD 70 F5            515 	ld	-11 (ix),b
   03A0 DD 73 F6            516 	ld	-10 (ix),e
   03A3 DD 72 F7            517 	ld	-9 (ix),d
   03A6                     518 00119$:
                            519 ;../sincoshf.c:89: return z;
   03A6 DD 6E F4            520 	ld	l,-12 (ix)
   03A9 DD 66 F5            521 	ld	h,-11 (ix)
   03AC DD 5E F6            522 	ld	e,-10 (ix)
   03AF DD 56 F7            523 	ld	d,-9 (ix)
   03B2 DD F9               524 	ld	sp,ix
   03B4 DD E1               525 	pop	ix
   03B6 C9                  526 	ret
   03B7                     527 _sincoshf_end::
                            528 	.area _CODE
                            529 	.area _CABS
