                              1 ;--------------------------------------------------------
                              2 ; File Created by SDCC : free open source ANSI-C Compiler
                              3 ; Version 2.9.4 #5595 (Oct 23 2013) (Mac OS X ppc)
                              4 ; This file was generated Wed Oct 23 12:26:07 2013
                              5 ;--------------------------------------------------------
                              6 	.module tancotf
                              7 	.optsdcc -mz80
                              8 	
                              9 ;--------------------------------------------------------
                             10 ; Public variables in this module
                             11 ;--------------------------------------------------------
                             12 	.globl _tancotf
                             13 ;--------------------------------------------------------
                             14 ; special function registers
                             15 ;--------------------------------------------------------
                             16 ;--------------------------------------------------------
                             17 ;  ram data
                             18 ;--------------------------------------------------------
                             19 	.area _DATA
                             20 ;--------------------------------------------------------
                             21 ; overlayable items in  ram 
                             22 ;--------------------------------------------------------
                             23 	.area _OVERLAY
                             24 ;--------------------------------------------------------
                             25 ; external initialized ram data
                             26 ;--------------------------------------------------------
                             27 ;--------------------------------------------------------
                             28 ; global & static initialisations
                             29 ;--------------------------------------------------------
                             30 	.area _HOME
                             31 	.area _GSINIT
                             32 	.area _GSFINAL
                             33 	.area _GSINIT
                             34 ;--------------------------------------------------------
                             35 ; Home
                             36 ;--------------------------------------------------------
                             37 	.area _HOME
                             38 	.area _HOME
                             39 ;--------------------------------------------------------
                             40 ; code
                             41 ;--------------------------------------------------------
                             42 	.area _CODE
                             43 ;../tancotf.c:42: float tancotf(const float x, const int iscotan)
                             44 ;	---------------------------------
                             45 ; Function tancotf
                             46 ; ---------------------------------
   0000                      47 _tancotf_start::
   0000                      48 _tancotf:
   0000 DD E5                49 	push	ix
   0002 DD 21 00 00          50 	ld	ix,#0
   0006 DD 39                51 	add	ix,sp
   0008 21 E6 FF             52 	ld	hl,#-26
   000B 39                   53 	add	hl,sp
   000C F9                   54 	ld	sp,hl
                             55 ;../tancotf.c:47: if (fabsf(x) > YMAX)
   000D DD 6E 06             56 	ld	l,6 (ix)
   0010 DD 66 07             57 	ld	h,7 (ix)
   0013 E5                   58 	push	hl
   0014 DD 6E 04             59 	ld	l,4 (ix)
   0017 DD 66 05             60 	ld	h,5 (ix)
   001A E5                   61 	push	hl
   001B CDr00s00             62 	call	_fabsf
   001E F1                   63 	pop	af
   001F F1                   64 	pop	af
   0020 44                   65 	ld	b,h
   0021 4D                   66 	ld	c,l
   0022 21 C9 45             67 	ld	hl,#0x45C9
   0025 E5                   68 	push	hl
   0026 21 00 08             69 	ld	hl,#0x0800
   0029 E5                   70 	push	hl
   002A D5                   71 	push	de
   002B C5                   72 	push	bc
   002C CDr00s00             73 	call	___fsgt
   002F F1                   74 	pop	af
   0030 F1                   75 	pop	af
   0031 F1                   76 	pop	af
   0032 F1                   77 	pop	af
   0033 AF                   78 	xor	a,a
   0034 B5                   79 	or	a,l
   0035 28 14                80 	jr	Z,00102$
                             81 ;../tancotf.c:49: errno = ERANGE;
   0037 FD 21r00s00          82 	ld	iy,#_errno
   003B FD 36 00 22          83 	ld	0 (iy),#0x22
   003F FD 36 01 00          84 	ld	1 (iy),#0x00
                             85 ;../tancotf.c:50: return 0.0;
   0043 21 00 00             86 	ld	hl,#0x0000
   0046 5D                   87 	ld	e,l
   0047 54                   88 	ld	d,h
   0048 C3rE3s03             89 	jp	00115$
   004B                      90 00102$:
                             91 ;../tancotf.c:54: n=(x*TWO_O_PI+(x>0.0?0.5:-0.5)); /*works for +-x*/
   004B DD 6E 06             92 	ld	l,6 (ix)
   004E DD 66 07             93 	ld	h,7 (ix)
   0051 E5                   94 	push	hl
   0052 DD 6E 04             95 	ld	l,4 (ix)
   0055 DD 66 05             96 	ld	h,5 (ix)
   0058 E5                   97 	push	hl
   0059 21 22 3F             98 	ld	hl,#0x3F22
   005C E5                   99 	push	hl
   005D 21 83 F9            100 	ld	hl,#0xF983
   0060 E5                  101 	push	hl
   0061 CDr00s00            102 	call	___fsmul
   0064 F1                  103 	pop	af
   0065 F1                  104 	pop	af
   0066 F1                  105 	pop	af
   0067 F1                  106 	pop	af
   0068 DD 72 E9            107 	ld	-23 (ix),d
   006B DD 73 E8            108 	ld	-24 (ix),e
   006E DD 74 E7            109 	ld	-25 (ix),h
   0071 DD 75 E6            110 	ld	-26 (ix),l
   0074 21 00 00            111 	ld	hl,#0x0000
   0077 E5                  112 	push	hl
   0078 21 00 00            113 	ld	hl,#0x0000
   007B E5                  114 	push	hl
   007C DD 6E 06            115 	ld	l,6 (ix)
   007F DD 66 07            116 	ld	h,7 (ix)
   0082 E5                  117 	push	hl
   0083 DD 6E 04            118 	ld	l,4 (ix)
   0086 DD 66 05            119 	ld	h,5 (ix)
   0089 E5                  120 	push	hl
   008A CDr00s00            121 	call	___fsgt
   008D F1                  122 	pop	af
   008E F1                  123 	pop	af
   008F F1                  124 	pop	af
   0090 F1                  125 	pop	af
   0091 AF                  126 	xor	a,a
   0092 B5                  127 	or	a,l
   0093 28 08               128 	jr	Z,00117$
   0095 01 00 00            129 	ld	bc,#0x0000
   0098 11 00 3F            130 	ld	de,#0x3F00
   009B 18 06               131 	jr	00118$
   009D                     132 00117$:
   009D 01 00 00            133 	ld	bc,#0x0000
   00A0 11 00 BF            134 	ld	de,#0xBF00
   00A3                     135 00118$:
   00A3 D5                  136 	push	de
   00A4 C5                  137 	push	bc
   00A5 DD 6E E8            138 	ld	l,-24 (ix)
   00A8 DD 66 E9            139 	ld	h,-23 (ix)
   00AB E5                  140 	push	hl
   00AC DD 6E E6            141 	ld	l,-26 (ix)
   00AF DD 66 E7            142 	ld	h,-25 (ix)
   00B2 E5                  143 	push	hl
   00B3 CDr00s00            144 	call	___fsadd
   00B6 F1                  145 	pop	af
   00B7 F1                  146 	pop	af
   00B8 F1                  147 	pop	af
   00B9 F1                  148 	pop	af
   00BA 44                  149 	ld	b,h
   00BB 4D                  150 	ld	c,l
   00BC D5                  151 	push	de
   00BD C5                  152 	push	bc
   00BE CDr00s00            153 	call	___fs2sint
   00C1 F1                  154 	pop	af
   00C2 F1                  155 	pop	af
   00C3 44                  156 	ld	b,h
   00C4 DD 75 EA            157 	ld	-22 (ix),l
   00C7 DD 70 EB            158 	ld	-21 (ix),b
                            159 ;../tancotf.c:55: xn=n;
   00CA DD 6E EA            160 	ld	l,-22 (ix)
   00CD DD 66 EB            161 	ld	h,-21 (ix)
   00D0 E5                  162 	push	hl
   00D1 CDr00s00            163 	call	___sint2fs
   00D4 F1                  164 	pop	af
   00D5 44                  165 	ld	b,h
   00D6 DD 75 F4            166 	ld	-12 (ix),l
   00D9 DD 70 F5            167 	ld	-11 (ix),b
   00DC DD 73 F6            168 	ld	-10 (ix),e
   00DF DD 72 F7            169 	ld	-9 (ix),d
                            170 ;../tancotf.c:57: xnum=(int)x;
   00E2 DD 6E 06            171 	ld	l,6 (ix)
   00E5 DD 66 07            172 	ld	h,7 (ix)
   00E8 E5                  173 	push	hl
   00E9 DD 6E 04            174 	ld	l,4 (ix)
   00EC DD 66 05            175 	ld	h,5 (ix)
   00EF E5                  176 	push	hl
   00F0 CDr00s00            177 	call	___fs2sint
   00F3 F1                  178 	pop	af
   00F4 F1                  179 	pop	af
   00F5 44                  180 	ld	b,h
   00F6 4D                  181 	ld	c,l
   00F7 C5                  182 	push	bc
   00F8 CDr00s00            183 	call	___sint2fs
   00FB F1                  184 	pop	af
   00FC 44                  185 	ld	b,h
   00FD DD 75 F0            186 	ld	-16 (ix),l
   0100 DD 70 F1            187 	ld	-15 (ix),b
   0103 DD 73 F2            188 	ld	-14 (ix),e
   0106 DD 72 F3            189 	ld	-13 (ix),d
                            190 ;../tancotf.c:58: xden=x-xnum;
   0109 DD 6E F2            191 	ld	l,-14 (ix)
   010C DD 66 F3            192 	ld	h,-13 (ix)
   010F E5                  193 	push	hl
   0110 DD 6E F0            194 	ld	l,-16 (ix)
   0113 DD 66 F1            195 	ld	h,-15 (ix)
   0116 E5                  196 	push	hl
   0117 DD 6E 06            197 	ld	l,6 (ix)
   011A DD 66 07            198 	ld	h,7 (ix)
   011D E5                  199 	push	hl
   011E DD 6E 04            200 	ld	l,4 (ix)
   0121 DD 66 05            201 	ld	h,5 (ix)
   0124 E5                  202 	push	hl
   0125 CDr00s00            203 	call	___fssub
   0128 F1                  204 	pop	af
   0129 F1                  205 	pop	af
   012A F1                  206 	pop	af
   012B F1                  207 	pop	af
   012C 44                  208 	ld	b,h
   012D DD 75 EC            209 	ld	-20 (ix),l
   0130 DD 70 ED            210 	ld	-19 (ix),b
   0133 DD 73 EE            211 	ld	-18 (ix),e
   0136 DD 72 EF            212 	ld	-17 (ix),d
                            213 ;../tancotf.c:59: f=((xnum-xn*C1)+xden)-xn*C2;
   0139 DD 6E F6            214 	ld	l,-10 (ix)
   013C DD 66 F7            215 	ld	h,-9 (ix)
   013F E5                  216 	push	hl
   0140 DD 6E F4            217 	ld	l,-12 (ix)
   0143 DD 66 F5            218 	ld	h,-11 (ix)
   0146 E5                  219 	push	hl
   0147 21 C9 3F            220 	ld	hl,#0x3FC9
   014A E5                  221 	push	hl
   014B 21 00 00            222 	ld	hl,#0x0000
   014E E5                  223 	push	hl
   014F CDr00s00            224 	call	___fsmul
   0152 F1                  225 	pop	af
   0153 F1                  226 	pop	af
   0154 F1                  227 	pop	af
   0155 F1                  228 	pop	af
   0156 44                  229 	ld	b,h
   0157 4D                  230 	ld	c,l
   0158 D5                  231 	push	de
   0159 C5                  232 	push	bc
   015A DD 6E F2            233 	ld	l,-14 (ix)
   015D DD 66 F3            234 	ld	h,-13 (ix)
   0160 E5                  235 	push	hl
   0161 DD 6E F0            236 	ld	l,-16 (ix)
   0164 DD 66 F1            237 	ld	h,-15 (ix)
   0167 E5                  238 	push	hl
   0168 CDr00s00            239 	call	___fssub
   016B F1                  240 	pop	af
   016C F1                  241 	pop	af
   016D F1                  242 	pop	af
   016E F1                  243 	pop	af
   016F 44                  244 	ld	b,h
   0170 4D                  245 	ld	c,l
   0171 DD 6E EE            246 	ld	l,-18 (ix)
   0174 DD 66 EF            247 	ld	h,-17 (ix)
   0177 E5                  248 	push	hl
   0178 DD 6E EC            249 	ld	l,-20 (ix)
   017B DD 66 ED            250 	ld	h,-19 (ix)
   017E E5                  251 	push	hl
   017F D5                  252 	push	de
   0180 C5                  253 	push	bc
   0181 CDr00s00            254 	call	___fsadd
   0184 F1                  255 	pop	af
   0185 F1                  256 	pop	af
   0186 F1                  257 	pop	af
   0187 F1                  258 	pop	af
   0188 DD 72 E9            259 	ld	-23 (ix),d
   018B DD 73 E8            260 	ld	-24 (ix),e
   018E DD 74 E7            261 	ld	-25 (ix),h
   0191 DD 75 E6            262 	ld	-26 (ix),l
   0194 DD 6E F6            263 	ld	l,-10 (ix)
   0197 DD 66 F7            264 	ld	h,-9 (ix)
   019A E5                  265 	push	hl
   019B DD 6E F4            266 	ld	l,-12 (ix)
   019E DD 66 F5            267 	ld	h,-11 (ix)
   01A1 E5                  268 	push	hl
   01A2 21 FD 39            269 	ld	hl,#0x39FD
   01A5 E5                  270 	push	hl
   01A6 21 22 AA            271 	ld	hl,#0xAA22
   01A9 E5                  272 	push	hl
   01AA CDr00s00            273 	call	___fsmul
   01AD F1                  274 	pop	af
   01AE F1                  275 	pop	af
   01AF F1                  276 	pop	af
   01B0 F1                  277 	pop	af
   01B1 44                  278 	ld	b,h
   01B2 4D                  279 	ld	c,l
   01B3 D5                  280 	push	de
   01B4 C5                  281 	push	bc
   01B5 DD 6E E8            282 	ld	l,-24 (ix)
   01B8 DD 66 E9            283 	ld	h,-23 (ix)
   01BB E5                  284 	push	hl
   01BC DD 6E E6            285 	ld	l,-26 (ix)
   01BF DD 66 E7            286 	ld	h,-25 (ix)
   01C2 E5                  287 	push	hl
   01C3 CDr00s00            288 	call	___fssub
   01C6 F1                  289 	pop	af
   01C7 F1                  290 	pop	af
   01C8 F1                  291 	pop	af
   01C9 F1                  292 	pop	af
   01CA 44                  293 	ld	b,h
   01CB DD 75 FC            294 	ld	-4 (ix),l
   01CE DD 70 FD            295 	ld	-3 (ix),b
   01D1 DD 73 FE            296 	ld	-2 (ix),e
   01D4 DD 72 FF            297 	ld	-1 (ix),d
                            298 ;../tancotf.c:61: if (fabsf(f) < EPS)
   01D7 DD 6E FE            299 	ld	l,-2 (ix)
   01DA DD 66 FF            300 	ld	h,-1 (ix)
   01DD E5                  301 	push	hl
   01DE DD 6E FC            302 	ld	l,-4 (ix)
   01E1 DD 66 FD            303 	ld	h,-3 (ix)
   01E4 E5                  304 	push	hl
   01E5 CDr00s00            305 	call	_fabsf
   01E8 F1                  306 	pop	af
   01E9 F1                  307 	pop	af
   01EA 44                  308 	ld	b,h
   01EB 4D                  309 	ld	c,l
   01EC 21 80 39            310 	ld	hl,#0x3980
   01EF E5                  311 	push	hl
   01F0 21 00 00            312 	ld	hl,#0x0000
   01F3 E5                  313 	push	hl
   01F4 D5                  314 	push	de
   01F5 C5                  315 	push	bc
   01F6 CDr00s00            316 	call	___fslt
   01F9 F1                  317 	pop	af
   01FA F1                  318 	pop	af
   01FB F1                  319 	pop	af
   01FC F1                  320 	pop	af
   01FD AF                  321 	xor	a,a
   01FE B5                  322 	or	a,l
   01FF 28 2B               323 	jr	Z,00104$
                            324 ;../tancotf.c:63: xnum = f;
   0201 DD 7E FC            325 	ld	a,-4 (ix)
   0204 DD 77 F0            326 	ld	-16 (ix),a
   0207 DD 7E FD            327 	ld	a,-3 (ix)
   020A DD 77 F1            328 	ld	-15 (ix),a
   020D DD 7E FE            329 	ld	a,-2 (ix)
   0210 DD 77 F2            330 	ld	-14 (ix),a
   0213 DD 7E FF            331 	ld	a,-1 (ix)
   0216 DD 77 F3            332 	ld	-13 (ix),a
                            333 ;../tancotf.c:64: xden = 1.0;
   0219 DD 36 EC 00         334 	ld	-20 (ix),#0x00
   021D DD 36 ED 00         335 	ld	-19 (ix),#0x00
   0221 DD 36 EE 80         336 	ld	-18 (ix),#0x80
   0225 DD 36 EF 3F         337 	ld	-17 (ix),#0x3F
   0229 C3r21s03            338 	jp	00105$
   022C                     339 00104$:
                            340 ;../tancotf.c:68: g = f*f;
   022C DD 6E FE            341 	ld	l,-2 (ix)
   022F DD 66 FF            342 	ld	h,-1 (ix)
   0232 E5                  343 	push	hl
   0233 DD 6E FC            344 	ld	l,-4 (ix)
   0236 DD 66 FD            345 	ld	h,-3 (ix)
   0239 E5                  346 	push	hl
   023A DD 6E FE            347 	ld	l,-2 (ix)
   023D DD 66 FF            348 	ld	h,-1 (ix)
   0240 E5                  349 	push	hl
   0241 DD 6E FC            350 	ld	l,-4 (ix)
   0244 DD 66 FD            351 	ld	h,-3 (ix)
   0247 E5                  352 	push	hl
   0248 CDr00s00            353 	call	___fsmul
   024B F1                  354 	pop	af
   024C F1                  355 	pop	af
   024D F1                  356 	pop	af
   024E F1                  357 	pop	af
   024F 44                  358 	ld	b,h
   0250 DD 75 F8            359 	ld	-8 (ix),l
   0253 DD 70 F9            360 	ld	-7 (ix),b
   0256 DD 73 FA            361 	ld	-6 (ix),e
   0259 DD 72 FB            362 	ld	-5 (ix),d
                            363 ;../tancotf.c:69: xnum = P(f,g);
   025C DD 6E FA            364 	ld	l,-6 (ix)
   025F DD 66 FB            365 	ld	h,-5 (ix)
   0262 E5                  366 	push	hl
   0263 DD 6E F8            367 	ld	l,-8 (ix)
   0266 DD 66 F9            368 	ld	h,-7 (ix)
   0269 E5                  369 	push	hl
   026A 21 C4 BD            370 	ld	hl,#0xBDC4
   026D E5                  371 	push	hl
   026E 21 B8 33            372 	ld	hl,#0x33B8
   0271 E5                  373 	push	hl
   0272 CDr00s00            374 	call	___fsmul
   0275 F1                  375 	pop	af
   0276 F1                  376 	pop	af
   0277 F1                  377 	pop	af
   0278 F1                  378 	pop	af
   0279 44                  379 	ld	b,h
   027A 4D                  380 	ld	c,l
   027B DD 6E FE            381 	ld	l,-2 (ix)
   027E DD 66 FF            382 	ld	h,-1 (ix)
   0281 E5                  383 	push	hl
   0282 DD 6E FC            384 	ld	l,-4 (ix)
   0285 DD 66 FD            385 	ld	h,-3 (ix)
   0288 E5                  386 	push	hl
   0289 D5                  387 	push	de
   028A C5                  388 	push	bc
   028B CDr00s00            389 	call	___fsmul
   028E F1                  390 	pop	af
   028F F1                  391 	pop	af
   0290 F1                  392 	pop	af
   0291 F1                  393 	pop	af
   0292 44                  394 	ld	b,h
   0293 4D                  395 	ld	c,l
   0294 DD 6E FE            396 	ld	l,-2 (ix)
   0297 DD 66 FF            397 	ld	h,-1 (ix)
   029A E5                  398 	push	hl
   029B DD 6E FC            399 	ld	l,-4 (ix)
   029E DD 66 FD            400 	ld	h,-3 (ix)
   02A1 E5                  401 	push	hl
   02A2 D5                  402 	push	de
   02A3 C5                  403 	push	bc
   02A4 CDr00s00            404 	call	___fsadd
   02A7 F1                  405 	pop	af
   02A8 F1                  406 	pop	af
   02A9 F1                  407 	pop	af
   02AA F1                  408 	pop	af
   02AB 44                  409 	ld	b,h
   02AC DD 75 F0            410 	ld	-16 (ix),l
   02AF DD 70 F1            411 	ld	-15 (ix),b
   02B2 DD 73 F2            412 	ld	-14 (ix),e
   02B5 DD 72 F3            413 	ld	-13 (ix),d
                            414 ;../tancotf.c:70: xden = Q(g);
   02B8 DD 6E FA            415 	ld	l,-6 (ix)
   02BB DD 66 FB            416 	ld	h,-5 (ix)
   02BE E5                  417 	push	hl
   02BF DD 6E F8            418 	ld	l,-8 (ix)
   02C2 DD 66 F9            419 	ld	h,-7 (ix)
   02C5 E5                  420 	push	hl
   02C6 21 1F 3C            421 	ld	hl,#0x3C1F
   02C9 E5                  422 	push	hl
   02CA 21 75 33            423 	ld	hl,#0x3375
   02CD E5                  424 	push	hl
   02CE CDr00s00            425 	call	___fsmul
   02D1 F1                  426 	pop	af
   02D2 F1                  427 	pop	af
   02D3 F1                  428 	pop	af
   02D4 F1                  429 	pop	af
   02D5 44                  430 	ld	b,h
   02D6 4D                  431 	ld	c,l
   02D7 21 DB BE            432 	ld	hl,#0xBEDB
   02DA E5                  433 	push	hl
   02DB 21 AF B7            434 	ld	hl,#0xB7AF
   02DE E5                  435 	push	hl
   02DF D5                  436 	push	de
   02E0 C5                  437 	push	bc
   02E1 CDr00s00            438 	call	___fsadd
   02E4 F1                  439 	pop	af
   02E5 F1                  440 	pop	af
   02E6 F1                  441 	pop	af
   02E7 F1                  442 	pop	af
   02E8 44                  443 	ld	b,h
   02E9 4D                  444 	ld	c,l
   02EA DD 6E FA            445 	ld	l,-6 (ix)
   02ED DD 66 FB            446 	ld	h,-5 (ix)
   02F0 E5                  447 	push	hl
   02F1 DD 6E F8            448 	ld	l,-8 (ix)
   02F4 DD 66 F9            449 	ld	h,-7 (ix)
   02F7 E5                  450 	push	hl
   02F8 D5                  451 	push	de
   02F9 C5                  452 	push	bc
   02FA CDr00s00            453 	call	___fsmul
   02FD F1                  454 	pop	af
   02FE F1                  455 	pop	af
   02FF F1                  456 	pop	af
   0300 F1                  457 	pop	af
   0301 44                  458 	ld	b,h
   0302 4D                  459 	ld	c,l
   0303 21 80 3F            460 	ld	hl,#0x3F80
   0306 E5                  461 	push	hl
   0307 21 00 00            462 	ld	hl,#0x0000
   030A E5                  463 	push	hl
   030B D5                  464 	push	de
   030C C5                  465 	push	bc
   030D CDr00s00            466 	call	___fsadd
   0310 F1                  467 	pop	af
   0311 F1                  468 	pop	af
   0312 F1                  469 	pop	af
   0313 F1                  470 	pop	af
   0314 44                  471 	ld	b,h
   0315 DD 75 EC            472 	ld	-20 (ix),l
   0318 DD 70 ED            473 	ld	-19 (ix),b
   031B DD 73 EE            474 	ld	-18 (ix),e
   031E DD 72 EF            475 	ld	-17 (ix),d
   0321                     476 00105$:
                            477 ;../tancotf.c:73: if(n&1)
   0321 DD 7E EA            478 	ld	a,-22 (ix)
   0324 E6 01               479 	and	a,#0x01
   0326 CAr8Bs03            480 	jp	Z,00113$
                            481 ;../tancotf.c:76: if(iscotan) return (-xnum/xden);
   0329 DD 7E 08            482 	ld	a,8 (ix)
   032C DD B6 09            483 	or	a,9 (ix)
   032F 28 2D               484 	jr	Z,00107$
   0331 DD 7E F3            485 	ld	a,-13 (ix)
   0334 EE 80               486 	xor	a,#0x80
   0336 57                  487 	ld	d,a
   0337 DD 4E F0            488 	ld	c,-16 (ix)
   033A DD 46 F1            489 	ld	b,-15 (ix)
   033D DD 5E F2            490 	ld	e,-14 (ix)
   0340 DD 6E EE            491 	ld	l,-18 (ix)
   0343 DD 66 EF            492 	ld	h,-17 (ix)
   0346 E5                  493 	push	hl
   0347 DD 6E EC            494 	ld	l,-20 (ix)
   034A DD 66 ED            495 	ld	h,-19 (ix)
   034D E5                  496 	push	hl
   034E D5                  497 	push	de
   034F C5                  498 	push	bc
   0350 CDr00s00            499 	call	___fsdiv
   0353 F1                  500 	pop	af
   0354 F1                  501 	pop	af
   0355 F1                  502 	pop	af
   0356 F1                  503 	pop	af
   0357 44                  504 	ld	b,h
   0358 4D                  505 	ld	c,l
   0359 69                  506 	ld	l,c
   035A 60                  507 	ld	h,b
   035B C3rE3s03            508 	jp	00115$
   035E                     509 00107$:
                            510 ;../tancotf.c:77: else return (-xden/xnum);
   035E DD 7E EF            511 	ld	a,-17 (ix)
   0361 EE 80               512 	xor	a,#0x80
   0363 57                  513 	ld	d,a
   0364 DD 4E EC            514 	ld	c,-20 (ix)
   0367 DD 46 ED            515 	ld	b,-19 (ix)
   036A DD 5E EE            516 	ld	e,-18 (ix)
   036D DD 6E F2            517 	ld	l,-14 (ix)
   0370 DD 66 F3            518 	ld	h,-13 (ix)
   0373 E5                  519 	push	hl
   0374 DD 6E F0            520 	ld	l,-16 (ix)
   0377 DD 66 F1            521 	ld	h,-15 (ix)
   037A E5                  522 	push	hl
   037B D5                  523 	push	de
   037C C5                  524 	push	bc
   037D CDr00s00            525 	call	___fsdiv
   0380 F1                  526 	pop	af
   0381 F1                  527 	pop	af
   0382 F1                  528 	pop	af
   0383 F1                  529 	pop	af
   0384 44                  530 	ld	b,h
   0385 4D                  531 	ld	c,l
   0386 69                  532 	ld	l,c
   0387 60                  533 	ld	h,b
   0388 C3rE3s03            534 	jp	00115$
   038B                     535 00113$:
                            536 ;../tancotf.c:81: if(iscotan) return (xden/xnum);
   038B DD 7E 08            537 	ld	a,8 (ix)
   038E DD B6 09            538 	or	a,9 (ix)
   0391 28 29               539 	jr	Z,00110$
   0393 DD 6E F2            540 	ld	l,-14 (ix)
   0396 DD 66 F3            541 	ld	h,-13 (ix)
   0399 E5                  542 	push	hl
   039A DD 6E F0            543 	ld	l,-16 (ix)
   039D DD 66 F1            544 	ld	h,-15 (ix)
   03A0 E5                  545 	push	hl
   03A1 DD 6E EE            546 	ld	l,-18 (ix)
   03A4 DD 66 EF            547 	ld	h,-17 (ix)
   03A7 E5                  548 	push	hl
   03A8 DD 6E EC            549 	ld	l,-20 (ix)
   03AB DD 66 ED            550 	ld	h,-19 (ix)
   03AE E5                  551 	push	hl
   03AF CDr00s00            552 	call	___fsdiv
   03B2 F1                  553 	pop	af
   03B3 F1                  554 	pop	af
   03B4 F1                  555 	pop	af
   03B5 F1                  556 	pop	af
   03B6 44                  557 	ld	b,h
   03B7 4D                  558 	ld	c,l
   03B8 69                  559 	ld	l,c
   03B9 60                  560 	ld	h,b
   03BA 18 27               561 	jr	00115$
   03BC                     562 00110$:
                            563 ;../tancotf.c:82: else return (xnum/xden);
   03BC DD 6E EE            564 	ld	l,-18 (ix)
   03BF DD 66 EF            565 	ld	h,-17 (ix)
   03C2 E5                  566 	push	hl
   03C3 DD 6E EC            567 	ld	l,-20 (ix)
   03C6 DD 66 ED            568 	ld	h,-19 (ix)
   03C9 E5                  569 	push	hl
   03CA DD 6E F2            570 	ld	l,-14 (ix)
   03CD DD 66 F3            571 	ld	h,-13 (ix)
   03D0 E5                  572 	push	hl
   03D1 DD 6E F0            573 	ld	l,-16 (ix)
   03D4 DD 66 F1            574 	ld	h,-15 (ix)
   03D7 E5                  575 	push	hl
   03D8 CDr00s00            576 	call	___fsdiv
   03DB F1                  577 	pop	af
   03DC F1                  578 	pop	af
   03DD F1                  579 	pop	af
   03DE F1                  580 	pop	af
   03DF 44                  581 	ld	b,h
   03E0 4D                  582 	ld	c,l
   03E1 69                  583 	ld	l,c
   03E2 60                  584 	ld	h,b
   03E3                     585 00115$:
   03E3 DD F9               586 	ld	sp,ix
   03E5 DD E1               587 	pop	ix
   03E7 C9                  588 	ret
   03E8                     589 _tancotf_end::
                            590 	.area _CODE
                            591 	.area _CABS
