                              1 ;--------------------------------------------------------
                              2 ; File Created by SDCC : free open source ANSI-C Compiler
                              3 ; Version 2.9.4 #5595 (Oct 23 2013) (Mac OS X ppc)
                              4 ; This file was generated Wed Oct 23 12:25:38 2013
                              5 ;--------------------------------------------------------
                              6 	.module asincosf
                              7 	.optsdcc -mhc08
                              8 	
                              9 	.area HOME (CODE)
                             10 	.area GSINIT0 (CODE)
                             11 	.area GSINIT (CODE)
                             12 	.area GSFINAL (CODE)
                             13 	.area CSEG (CODE)
                             14 	.area XINIT
                             15 	.area CONST   (CODE)
                             16 	.area DSEG
                             17 	.area OSEG    (OVR)
                             18 	.area BSEG
                             19 	.area XSEG
                             20 	.area XISEG
                             21 ;--------------------------------------------------------
                             22 ; Public variables in this module
                             23 ;--------------------------------------------------------
                             24 	.globl _asincosf
                             25 	.globl _asincosf_PARM_2
                             26 	.globl _asincosf_PARM_1
                             27 ;--------------------------------------------------------
                             28 ;  ram data
                             29 ;--------------------------------------------------------
                             30 	.area DSEG
   0000                      31 _asincosf_sloc0_1_0:
   0000                      32 	.ds 1
   0001                      33 _asincosf_sloc1_1_0:
   0001                      34 	.ds 4
                             35 ;--------------------------------------------------------
                             36 ; overlayable items in  ram 
                             37 ;--------------------------------------------------------
                             38 	.area OSEG    (OVR)
                             39 ;--------------------------------------------------------
                             40 ; absolute external ram data
                             41 ;--------------------------------------------------------
                             42 	.area XABS    (ABS)
                             43 ;--------------------------------------------------------
                             44 ; external initialized ram data
                             45 ;--------------------------------------------------------
                             46 	.area XISEG
                             47 ;--------------------------------------------------------
                             48 ; extended address mode data
                             49 ;--------------------------------------------------------
                             50 	.area XSEG
   0000                      51 _asincosf_PARM_1:
   0000                      52 	.ds 4
   0004                      53 _asincosf_PARM_2:
   0004                      54 	.ds 1
   0005                      55 _asincosf_y_1_1:
   0005                      56 	.ds 4
   0009                      57 _asincosf_g_1_1:
   0009                      58 	.ds 4
   000D                      59 _asincosf_r_1_1:
   000D                      60 	.ds 4
   0011                      61 _asincosf_quartPI_1_1:
   0011                      62 	.ds 1
   0012                      63 _asincosf_a_1_1:
   0012                      64 	.ds 8
   001A                      65 _asincosf_b_1_1:
   001A                      66 	.ds 8
                             67 ;--------------------------------------------------------
                             68 ; global & static initialisations
                             69 ;--------------------------------------------------------
                             70 	.area HOME (CODE)
                             71 	.area GSINIT (CODE)
                             72 	.area GSFINAL (CODE)
                             73 	.area GSINIT (CODE)
                             74 ;------------------------------------------------------------
                             75 ;Allocation info for local variables in function 'asincosf'
                             76 ;------------------------------------------------------------
                             77 ;sloc0                     Allocated with name '_asincosf_sloc0_1_0'
                             78 ;sloc1                     Allocated with name '_asincosf_sloc1_1_0'
                             79 ;x                         Allocated with name '_asincosf_PARM_1'
                             80 ;isacos                    Allocated with name '_asincosf_PARM_2'
                             81 ;y                         Allocated with name '_asincosf_y_1_1'
                             82 ;g                         Allocated with name '_asincosf_g_1_1'
                             83 ;r                         Allocated with name '_asincosf_r_1_1'
                             84 ;i                         Allocated to registers 
                             85 ;quartPI                   Allocated with name '_asincosf_quartPI_1_1'
                             86 ;a                         Allocated with name '_asincosf_a_1_1'
                             87 ;b                         Allocated with name '_asincosf_b_1_1'
                             88 ;------------------------------------------------------------
                             89 ;../asincosf.c:43: static const float a[2] = { 0.0, QUART_PI };
   0000 4F                   90 	clra
   0001 C7s00r12             91 	sta	_asincosf_a_1_1
   0004 C7s00r13             92 	sta	(_asincosf_a_1_1 + 1)
   0007 C7s00r14             93 	sta	(_asincosf_a_1_1 + 2)
   000A C7s00r15             94 	sta	(_asincosf_a_1_1 + 3)
   000D A6 3F                95 	lda	#0x3F
   000F C7s00r16             96 	sta	(_asincosf_a_1_1 + 0x0004)
   0012 A6 49                97 	lda	#0x49
   0014 C7s00r17             98 	sta	((_asincosf_a_1_1 + 0x0004) + 1)
   0017 A6 0F                99 	lda	#0x0F
   0019 C7s00r18            100 	sta	((_asincosf_a_1_1 + 0x0004) + 2)
   001C A6 DB               101 	lda	#0xDB
   001E C7s00r19            102 	sta	((_asincosf_a_1_1 + 0x0004) + 3)
                            103 ;../asincosf.c:44: static const float b[2] = { HALF_PI, QUART_PI };
   0021 A6 3F               104 	lda	#0x3F
   0023 C7s00r1A            105 	sta	_asincosf_b_1_1
   0026 A6 C9               106 	lda	#0xC9
   0028 C7s00r1B            107 	sta	(_asincosf_b_1_1 + 1)
   002B A6 0F               108 	lda	#0x0F
   002D C7s00r1C            109 	sta	(_asincosf_b_1_1 + 2)
   0030 A6 DB               110 	lda	#0xDB
   0032 C7s00r1D            111 	sta	(_asincosf_b_1_1 + 3)
   0035 A6 3F               112 	lda	#0x3F
   0037 C7s00r1E            113 	sta	(_asincosf_b_1_1 + 0x0004)
   003A A6 49               114 	lda	#0x49
   003C C7s00r1F            115 	sta	((_asincosf_b_1_1 + 0x0004) + 1)
   003F A6 0F               116 	lda	#0x0F
   0041 C7s00r20            117 	sta	((_asincosf_b_1_1 + 0x0004) + 2)
   0044 A6 DB               118 	lda	#0xDB
   0046 C7s00r21            119 	sta	((_asincosf_b_1_1 + 0x0004) + 3)
                            120 ;--------------------------------------------------------
                            121 ; Home
                            122 ;--------------------------------------------------------
                            123 	.area HOME (CODE)
                            124 	.area HOME (CODE)
                            125 ;--------------------------------------------------------
                            126 ; code
                            127 ;--------------------------------------------------------
                            128 	.area CSEG (CODE)
                            129 ;------------------------------------------------------------
                            130 ;Allocation info for local variables in function 'asincosf'
                            131 ;------------------------------------------------------------
                            132 ;sloc0                     Allocated with name '_asincosf_sloc0_1_0'
                            133 ;sloc1                     Allocated with name '_asincosf_sloc1_1_0'
                            134 ;x                         Allocated with name '_asincosf_PARM_1'
                            135 ;isacos                    Allocated with name '_asincosf_PARM_2'
                            136 ;y                         Allocated with name '_asincosf_y_1_1'
                            137 ;g                         Allocated with name '_asincosf_g_1_1'
                            138 ;r                         Allocated with name '_asincosf_r_1_1'
                            139 ;i                         Allocated to registers 
                            140 ;quartPI                   Allocated with name '_asincosf_quartPI_1_1'
                            141 ;a                         Allocated with name '_asincosf_a_1_1'
                            142 ;b                         Allocated with name '_asincosf_b_1_1'
                            143 ;------------------------------------------------------------
                            144 ;../asincosf.c:37: float asincosf(const float x, const BOOL isacos)
                            145 ;	-----------------------------------------
                            146 ;	 function asincosf
                            147 ;	-----------------------------------------
   0000                     148 _asincosf:
                            149 ;../asincosf.c:41: BOOL quartPI = isacos;
   0000 C6s00r04            150 	lda	_asincosf_PARM_2
   0003 C7s00r11            151 	sta	_asincosf_quartPI_1_1
                            152 ;../asincosf.c:46: y = fabsf(x);
   0006 C6s00r03            153 	lda	(_asincosf_PARM_1 + 3)
   0009 87                  154 	psha
   000A C6s00r02            155 	lda	(_asincosf_PARM_1 + 2)
   000D 87                  156 	psha
   000E C6s00r01            157 	lda	(_asincosf_PARM_1 + 1)
   0011 87                  158 	psha
   0012 C6s00r00            159 	lda	_asincosf_PARM_1
   0015 87                  160 	psha
   0016 CDs00r00            161 	jsr	_fabsf
   0019 C7s00r08            162 	sta	(_asincosf_y_1_1 + 3)
   001C CFs00r07            163 	stx	(_asincosf_y_1_1 + 2)
   001F B6*00               164 	lda	*__ret2
   0021 C7s00r06            165 	sta	(_asincosf_y_1_1 + 1)
   0024 B6*00               166 	lda	*__ret3
   0026 C7s00r05            167 	sta	_asincosf_y_1_1
   0029 A7 04               168 	ais	#4
                            169 ;../asincosf.c:47: if (y < EPS)
   002B C6s00r05            170 	lda	_asincosf_y_1_1
   002E C7s00r00            171 	sta	___fslt_PARM_1
   0031 C6s00r06            172 	lda	(_asincosf_y_1_1 + 1)
   0034 C7s00r01            173 	sta	(___fslt_PARM_1 + 1)
   0037 C6s00r07            174 	lda	(_asincosf_y_1_1 + 2)
   003A C7s00r02            175 	sta	(___fslt_PARM_1 + 2)
   003D C6s00r08            176 	lda	(_asincosf_y_1_1 + 3)
   0040 C7s00r03            177 	sta	(___fslt_PARM_1 + 3)
   0043 A6 39               178 	lda	#0x39
   0045 C7s00r00            179 	sta	___fslt_PARM_2
   0048 A6 80               180 	lda	#0x80
   004A C7s00r01            181 	sta	(___fslt_PARM_2 + 1)
   004D 4F                  182 	clra
   004E C7s00r02            183 	sta	(___fslt_PARM_2 + 2)
   0051 C7s00r03            184 	sta	(___fslt_PARM_2 + 3)
   0054 CDs00r00            185 	jsr	___fslt
   0057 B7*00               186 	sta	*_asincosf_sloc0_1_0
   0059 3D*00               187 	tst	*_asincosf_sloc0_1_0
   005B 27 1B               188 	beq	00107$
   005D                     189 00125$:
                            190 ;../asincosf.c:49: r = y;
   005D C6s00r05            191 	lda	_asincosf_y_1_1
   0060 C7s00r0D            192 	sta	_asincosf_r_1_1
   0063 C6s00r06            193 	lda	(_asincosf_y_1_1 + 1)
   0066 C7s00r0E            194 	sta	(_asincosf_r_1_1 + 1)
   0069 C6s00r07            195 	lda	(_asincosf_y_1_1 + 2)
   006C C7s00r0F            196 	sta	(_asincosf_r_1_1 + 2)
   006F C6s00r08            197 	lda	(_asincosf_y_1_1 + 3)
   0072 C7s00r10            198 	sta	(_asincosf_r_1_1 + 3)
   0075 CCs03rAD            199 	jmp	00108$
   0078                     200 00107$:
                            201 ;../asincosf.c:53: if (y > 0.5)
   0078 C6s00r05            202 	lda	_asincosf_y_1_1
   007B C7s00r00            203 	sta	___fsgt_PARM_1
   007E C6s00r06            204 	lda	(_asincosf_y_1_1 + 1)
   0081 C7s00r01            205 	sta	(___fsgt_PARM_1 + 1)
   0084 C6s00r07            206 	lda	(_asincosf_y_1_1 + 2)
   0087 C7s00r02            207 	sta	(___fsgt_PARM_1 + 2)
   008A C6s00r08            208 	lda	(_asincosf_y_1_1 + 3)
   008D C7s00r03            209 	sta	(___fsgt_PARM_1 + 3)
   0090 A6 3F               210 	lda	#0x3F
   0092 C7s00r00            211 	sta	___fsgt_PARM_2
   0095 4F                  212 	clra
   0096 C7s00r01            213 	sta	(___fsgt_PARM_2 + 1)
   0099 C7s00r02            214 	sta	(___fsgt_PARM_2 + 2)
   009C C7s00r03            215 	sta	(___fsgt_PARM_2 + 3)
   009F CDs00r00            216 	jsr	___fsgt
   00A2 B7*00               217 	sta	*_asincosf_sloc0_1_0
   00A4 3D*00               218 	tst	*_asincosf_sloc0_1_0
   00A6 26 03               219 	bne	00126$
   00A8 CCs01rDF            220 	jmp	00104$
   00AB                     221 00126$:
                            222 ;../asincosf.c:55: quartPI = !isacos;
   00AB C6s00r11            223 	lda	_asincosf_quartPI_1_1
   00AE 27 02               224 	beq	00127$
   00B0 A6 01               225 	lda	#0x01
   00B2                     226 00127$:
   00B2 A8 01               227 	eor	#0x01
   00B4 C7s00r11            228 	sta	_asincosf_quartPI_1_1
                            229 ;../asincosf.c:56: if (y > 1.0)
   00B7 C6s00r05            230 	lda	_asincosf_y_1_1
   00BA C7s00r00            231 	sta	___fsgt_PARM_1
   00BD C6s00r06            232 	lda	(_asincosf_y_1_1 + 1)
   00C0 C7s00r01            233 	sta	(___fsgt_PARM_1 + 1)
   00C3 C6s00r07            234 	lda	(_asincosf_y_1_1 + 2)
   00C6 C7s00r02            235 	sta	(___fsgt_PARM_1 + 2)
   00C9 C6s00r08            236 	lda	(_asincosf_y_1_1 + 3)
   00CC C7s00r03            237 	sta	(___fsgt_PARM_1 + 3)
   00CF A6 3F               238 	lda	#0x3F
   00D1 C7s00r00            239 	sta	___fsgt_PARM_2
   00D4 A6 80               240 	lda	#0x80
   00D6 C7s00r01            241 	sta	(___fsgt_PARM_2 + 1)
   00D9 4F                  242 	clra
   00DA C7s00r02            243 	sta	(___fsgt_PARM_2 + 2)
   00DD C7s00r03            244 	sta	(___fsgt_PARM_2 + 3)
   00E0 CDs00r00            245 	jsr	___fsgt
   00E3 B7*00               246 	sta	*_asincosf_sloc0_1_0
   00E5 3D*00               247 	tst	*_asincosf_sloc0_1_0
   00E7 27 10               248 	beq	00102$
   00E9                     249 00128$:
                            250 ;../asincosf.c:58: errno = EDOM;
   00E9 4F                  251 	clra
   00EA C7s00r00            252 	sta	_errno
   00ED A6 21               253 	lda	#0x21
   00EF C7s00r01            254 	sta	(_errno + 1)
                            255 ;../asincosf.c:59: return 0.0;
   00F2 3F*00               256 	clr	*__ret3
   00F4 3F*00               257 	clr	*__ret2
   00F6 5F                  258 	clrx
   00F7 4F                  259 	clra
   00F8 81                  260 	rts
   00F9                     261 00102$:
                            262 ;../asincosf.c:61: g = (0.5 - y) + 0.5;
   00F9 A6 3F               263 	lda	#0x3F
   00FB C7s00r00            264 	sta	___fssub_PARM_1
   00FE A6 80               265 	lda	#0x80
   0100 C7s00r01            266 	sta	(___fssub_PARM_1 + 1)
   0103 4F                  267 	clra
   0104 C7s00r02            268 	sta	(___fssub_PARM_1 + 2)
   0107 C7s00r03            269 	sta	(___fssub_PARM_1 + 3)
   010A C6s00r05            270 	lda	_asincosf_y_1_1
   010D C7s00r00            271 	sta	___fssub_PARM_2
   0110 C6s00r06            272 	lda	(_asincosf_y_1_1 + 1)
   0113 C7s00r01            273 	sta	(___fssub_PARM_2 + 1)
   0116 C6s00r07            274 	lda	(_asincosf_y_1_1 + 2)
   0119 C7s00r02            275 	sta	(___fssub_PARM_2 + 2)
   011C C6s00r08            276 	lda	(_asincosf_y_1_1 + 3)
   011F C7s00r03            277 	sta	(___fssub_PARM_2 + 3)
   0122 CDs00r00            278 	jsr	___fssub
   0125 C7s00r0C            279 	sta	(_asincosf_g_1_1 + 3)
   0128 CFs00r0B            280 	stx	(_asincosf_g_1_1 + 2)
   012B B6*00               281 	lda	*__ret2
   012D C7s00r0A            282 	sta	(_asincosf_g_1_1 + 1)
   0130 B6*00               283 	lda	*__ret3
                            284 ;../asincosf.c:62: g = ldexpf(g, -1);
   0132 C7s00r09            285 	sta	_asincosf_g_1_1
   0135 C7s00r00            286 	sta	_ldexpf_PARM_1
   0138 C6s00r0A            287 	lda	(_asincosf_g_1_1 + 1)
   013B C7s00r01            288 	sta	(_ldexpf_PARM_1 + 1)
   013E C6s00r0B            289 	lda	(_asincosf_g_1_1 + 2)
   0141 C7s00r02            290 	sta	(_ldexpf_PARM_1 + 2)
   0144 C6s00r0C            291 	lda	(_asincosf_g_1_1 + 3)
   0147 C7s00r03            292 	sta	(_ldexpf_PARM_1 + 3)
   014A A6 FF               293 	lda	#0xFF
   014C C7s00r00            294 	sta	_ldexpf_PARM_2
   014F C7s00r01            295 	sta	(_ldexpf_PARM_2 + 1)
   0152 CDs00r00            296 	jsr	_ldexpf
   0155 C7s00r0C            297 	sta	(_asincosf_g_1_1 + 3)
   0158 CFs00r0B            298 	stx	(_asincosf_g_1_1 + 2)
   015B B6*00               299 	lda	*__ret2
   015D C7s00r0A            300 	sta	(_asincosf_g_1_1 + 1)
   0160 B6*00               301 	lda	*__ret3
   0162 C7s00r09            302 	sta	_asincosf_g_1_1
                            303 ;../asincosf.c:63: y = sqrtf(g);
   0165 C6s00r0C            304 	lda	(_asincosf_g_1_1 + 3)
   0168 87                  305 	psha
   0169 C6s00r0B            306 	lda	(_asincosf_g_1_1 + 2)
   016C 87                  307 	psha
   016D C6s00r0A            308 	lda	(_asincosf_g_1_1 + 1)
   0170 87                  309 	psha
   0171 C6s00r09            310 	lda	_asincosf_g_1_1
   0174 87                  311 	psha
   0175 CDs00r00            312 	jsr	_sqrtf
   0178 C7s00r08            313 	sta	(_asincosf_y_1_1 + 3)
   017B CFs00r07            314 	stx	(_asincosf_y_1_1 + 2)
   017E B6*00               315 	lda	*__ret2
   0180 C7s00r06            316 	sta	(_asincosf_y_1_1 + 1)
   0183 B6*00               317 	lda	*__ret3
   0185 C7s00r05            318 	sta	_asincosf_y_1_1
   0188 A7 04               319 	ais	#4
                            320 ;../asincosf.c:64: y = -(y + y);
   018A C6s00r05            321 	lda	_asincosf_y_1_1
   018D C7s00r00            322 	sta	___fsadd_PARM_1
   0190 C6s00r06            323 	lda	(_asincosf_y_1_1 + 1)
   0193 C7s00r01            324 	sta	(___fsadd_PARM_1 + 1)
   0196 C6s00r07            325 	lda	(_asincosf_y_1_1 + 2)
   0199 C7s00r02            326 	sta	(___fsadd_PARM_1 + 2)
   019C C6s00r08            327 	lda	(_asincosf_y_1_1 + 3)
   019F C7s00r03            328 	sta	(___fsadd_PARM_1 + 3)
   01A2 C6s00r05            329 	lda	_asincosf_y_1_1
   01A5 C7s00r00            330 	sta	___fsadd_PARM_2
   01A8 C6s00r06            331 	lda	(_asincosf_y_1_1 + 1)
   01AB C7s00r01            332 	sta	(___fsadd_PARM_2 + 1)
   01AE C6s00r07            333 	lda	(_asincosf_y_1_1 + 2)
   01B1 C7s00r02            334 	sta	(___fsadd_PARM_2 + 2)
   01B4 C6s00r08            335 	lda	(_asincosf_y_1_1 + 3)
   01B7 C7s00r03            336 	sta	(___fsadd_PARM_2 + 3)
   01BA CDs00r00            337 	jsr	___fsadd
   01BD B7*04               338 	sta	*(_asincosf_sloc1_1_0 + 3)
   01BF BF*03               339 	stx	*(_asincosf_sloc1_1_0 + 2)
   01C1 4E*00*02            340 	mov	*__ret2,*(_asincosf_sloc1_1_0 + 1)
   01C4 4E*00*01            341 	mov	*__ret3,*_asincosf_sloc1_1_0
   01C7 B6*04               342 	lda	*(_asincosf_sloc1_1_0 + 3)
   01C9 C7s00r08            343 	sta	(_asincosf_y_1_1 + 3)
   01CC B6*03               344 	lda	*(_asincosf_sloc1_1_0 + 2)
   01CE C7s00r07            345 	sta	(_asincosf_y_1_1 + 2)
   01D1 B6*02               346 	lda	*(_asincosf_sloc1_1_0 + 1)
   01D3 C7s00r06            347 	sta	(_asincosf_y_1_1 + 1)
   01D6 B6*01               348 	lda	*_asincosf_sloc1_1_0
   01D8 A8 80               349 	eor	#0x80
   01DA C7s00r05            350 	sta	_asincosf_y_1_1
   01DD 20 43               351 	bra	00105$
   01DF                     352 00104$:
                            353 ;../asincosf.c:68: g = y * y;
   01DF C6s00r05            354 	lda	_asincosf_y_1_1
   01E2 C7s00r00            355 	sta	___fsmul_PARM_1
   01E5 C6s00r06            356 	lda	(_asincosf_y_1_1 + 1)
   01E8 C7s00r01            357 	sta	(___fsmul_PARM_1 + 1)
   01EB C6s00r07            358 	lda	(_asincosf_y_1_1 + 2)
   01EE C7s00r02            359 	sta	(___fsmul_PARM_1 + 2)
   01F1 C6s00r08            360 	lda	(_asincosf_y_1_1 + 3)
   01F4 C7s00r03            361 	sta	(___fsmul_PARM_1 + 3)
   01F7 C6s00r05            362 	lda	_asincosf_y_1_1
   01FA C7s00r00            363 	sta	___fsmul_PARM_2
   01FD C6s00r06            364 	lda	(_asincosf_y_1_1 + 1)
   0200 C7s00r01            365 	sta	(___fsmul_PARM_2 + 1)
   0203 C6s00r07            366 	lda	(_asincosf_y_1_1 + 2)
   0206 C7s00r02            367 	sta	(___fsmul_PARM_2 + 2)
   0209 C6s00r08            368 	lda	(_asincosf_y_1_1 + 3)
   020C C7s00r03            369 	sta	(___fsmul_PARM_2 + 3)
   020F CDs00r00            370 	jsr	___fsmul
   0212 C7s00r0C            371 	sta	(_asincosf_g_1_1 + 3)
   0215 CFs00r0B            372 	stx	(_asincosf_g_1_1 + 2)
   0218 B6*00               373 	lda	*__ret2
   021A C7s00r0A            374 	sta	(_asincosf_g_1_1 + 1)
   021D B6*00               375 	lda	*__ret3
   021F C7s00r09            376 	sta	_asincosf_g_1_1
   0222                     377 00105$:
                            378 ;../asincosf.c:70: r = y + y * ((P(g) * g) / Q(g));
   0222 A6 BF               379 	lda	#0xBF
   0224 C7s00r00            380 	sta	___fsmul_PARM_1
   0227 A6 01               381 	lda	#0x01
   0229 C7s00r01            382 	sta	(___fsmul_PARM_1 + 1)
   022C A6 20               383 	lda	#0x20
   022E C7s00r02            384 	sta	(___fsmul_PARM_1 + 2)
   0231 A6 65               385 	lda	#0x65
   0233 C7s00r03            386 	sta	(___fsmul_PARM_1 + 3)
   0236 C6s00r09            387 	lda	_asincosf_g_1_1
   0239 C7s00r00            388 	sta	___fsmul_PARM_2
   023C C6s00r0A            389 	lda	(_asincosf_g_1_1 + 1)
   023F C7s00r01            390 	sta	(___fsmul_PARM_2 + 1)
   0242 C6s00r0B            391 	lda	(_asincosf_g_1_1 + 2)
   0245 C7s00r02            392 	sta	(___fsmul_PARM_2 + 2)
   0248 C6s00r0C            393 	lda	(_asincosf_g_1_1 + 3)
   024B C7s00r03            394 	sta	(___fsmul_PARM_2 + 3)
   024E CDs00r00            395 	jsr	___fsmul
   0251 C7s00r03            396 	sta	(___fsadd_PARM_1 + 3)
   0254 CFs00r02            397 	stx	(___fsadd_PARM_1 + 2)
   0257 B6*00               398 	lda	*__ret2
   0259 C7s00r01            399 	sta	(___fsadd_PARM_1 + 1)
   025C B6*00               400 	lda	*__ret3
   025E C7s00r00            401 	sta	___fsadd_PARM_1
   0261 A6 3F               402 	lda	#0x3F
   0263 C7s00r00            403 	sta	___fsadd_PARM_2
   0266 A6 6F               404 	lda	#0x6F
   0268 C7s00r01            405 	sta	(___fsadd_PARM_2 + 1)
   026B A6 16               406 	lda	#0x16
   026D C7s00r02            407 	sta	(___fsadd_PARM_2 + 2)
   0270 A6 6B               408 	lda	#0x6B
   0272 C7s00r03            409 	sta	(___fsadd_PARM_2 + 3)
   0275 CDs00r00            410 	jsr	___fsadd
   0278 C7s00r03            411 	sta	(___fsmul_PARM_1 + 3)
   027B CFs00r02            412 	stx	(___fsmul_PARM_1 + 2)
   027E B6*00               413 	lda	*__ret2
   0280 C7s00r01            414 	sta	(___fsmul_PARM_1 + 1)
   0283 B6*00               415 	lda	*__ret3
   0285 C7s00r00            416 	sta	___fsmul_PARM_1
   0288 C6s00r09            417 	lda	_asincosf_g_1_1
   028B C7s00r00            418 	sta	___fsmul_PARM_2
   028E C6s00r0A            419 	lda	(_asincosf_g_1_1 + 1)
   0291 C7s00r01            420 	sta	(___fsmul_PARM_2 + 1)
   0294 C6s00r0B            421 	lda	(_asincosf_g_1_1 + 2)
   0297 C7s00r02            422 	sta	(___fsmul_PARM_2 + 2)
   029A C6s00r0C            423 	lda	(_asincosf_g_1_1 + 3)
   029D C7s00r03            424 	sta	(___fsmul_PARM_2 + 3)
   02A0 CDs00r00            425 	jsr	___fsmul
   02A3 C7s00r03            426 	sta	(___fsdiv_PARM_1 + 3)
   02A6 CFs00r02            427 	stx	(___fsdiv_PARM_1 + 2)
   02A9 B6*00               428 	lda	*__ret2
   02AB C7s00r01            429 	sta	(___fsdiv_PARM_1 + 1)
   02AE B6*00               430 	lda	*__ret3
   02B0 C7s00r00            431 	sta	___fsdiv_PARM_1
   02B3 C6s00r09            432 	lda	_asincosf_g_1_1
   02B6 C7s00r00            433 	sta	___fsadd_PARM_1
   02B9 C6s00r0A            434 	lda	(_asincosf_g_1_1 + 1)
   02BC C7s00r01            435 	sta	(___fsadd_PARM_1 + 1)
   02BF C6s00r0B            436 	lda	(_asincosf_g_1_1 + 2)
   02C2 C7s00r02            437 	sta	(___fsadd_PARM_1 + 2)
   02C5 C6s00r0C            438 	lda	(_asincosf_g_1_1 + 3)
   02C8 C7s00r03            439 	sta	(___fsadd_PARM_1 + 3)
   02CB A6 C0               440 	lda	#0xC0
   02CD C7s00r00            441 	sta	___fsadd_PARM_2
   02D0 A6 B1               442 	lda	#0xB1
   02D2 C7s00r01            443 	sta	(___fsadd_PARM_2 + 1)
   02D5 A6 8D               444 	lda	#0x8D
   02D7 C7s00r02            445 	sta	(___fsadd_PARM_2 + 2)
   02DA A6 0B               446 	lda	#0x0B
   02DC C7s00r03            447 	sta	(___fsadd_PARM_2 + 3)
   02DF CDs00r00            448 	jsr	___fsadd
   02E2 C7s00r03            449 	sta	(___fsmul_PARM_1 + 3)
   02E5 CFs00r02            450 	stx	(___fsmul_PARM_1 + 2)
   02E8 B6*00               451 	lda	*__ret2
   02EA C7s00r01            452 	sta	(___fsmul_PARM_1 + 1)
   02ED B6*00               453 	lda	*__ret3
   02EF C7s00r00            454 	sta	___fsmul_PARM_1
   02F2 C6s00r09            455 	lda	_asincosf_g_1_1
   02F5 C7s00r00            456 	sta	___fsmul_PARM_2
   02F8 C6s00r0A            457 	lda	(_asincosf_g_1_1 + 1)
   02FB C7s00r01            458 	sta	(___fsmul_PARM_2 + 1)
   02FE C6s00r0B            459 	lda	(_asincosf_g_1_1 + 2)
   0301 C7s00r02            460 	sta	(___fsmul_PARM_2 + 2)
   0304 C6s00r0C            461 	lda	(_asincosf_g_1_1 + 3)
   0307 C7s00r03            462 	sta	(___fsmul_PARM_2 + 3)
   030A CDs00r00            463 	jsr	___fsmul
   030D C7s00r03            464 	sta	(___fsadd_PARM_1 + 3)
   0310 CFs00r02            465 	stx	(___fsadd_PARM_1 + 2)
   0313 B6*00               466 	lda	*__ret2
   0315 C7s00r01            467 	sta	(___fsadd_PARM_1 + 1)
   0318 B6*00               468 	lda	*__ret3
   031A C7s00r00            469 	sta	___fsadd_PARM_1
   031D A6 40               470 	lda	#0x40
   031F C7s00r00            471 	sta	___fsadd_PARM_2
   0322 A6 B3               472 	lda	#0xB3
   0324 C7s00r01            473 	sta	(___fsadd_PARM_2 + 1)
   0327 A6 50               474 	lda	#0x50
   0329 C7s00r02            475 	sta	(___fsadd_PARM_2 + 2)
   032C A6 F0               476 	lda	#0xF0
   032E C7s00r03            477 	sta	(___fsadd_PARM_2 + 3)
   0331 CDs00r00            478 	jsr	___fsadd
   0334 C7s00r03            479 	sta	(___fsdiv_PARM_2 + 3)
   0337 CFs00r02            480 	stx	(___fsdiv_PARM_2 + 2)
   033A B6*00               481 	lda	*__ret2
   033C C7s00r01            482 	sta	(___fsdiv_PARM_2 + 1)
   033F B6*00               483 	lda	*__ret3
   0341 C7s00r00            484 	sta	___fsdiv_PARM_2
   0344 CDs00r00            485 	jsr	___fsdiv
   0347 C7s00r03            486 	sta	(___fsmul_PARM_2 + 3)
   034A CFs00r02            487 	stx	(___fsmul_PARM_2 + 2)
   034D B6*00               488 	lda	*__ret2
   034F C7s00r01            489 	sta	(___fsmul_PARM_2 + 1)
   0352 B6*00               490 	lda	*__ret3
   0354 C7s00r00            491 	sta	___fsmul_PARM_2
   0357 C6s00r05            492 	lda	_asincosf_y_1_1
   035A C7s00r00            493 	sta	___fsmul_PARM_1
   035D C6s00r06            494 	lda	(_asincosf_y_1_1 + 1)
   0360 C7s00r01            495 	sta	(___fsmul_PARM_1 + 1)
   0363 C6s00r07            496 	lda	(_asincosf_y_1_1 + 2)
   0366 C7s00r02            497 	sta	(___fsmul_PARM_1 + 2)
   0369 C6s00r08            498 	lda	(_asincosf_y_1_1 + 3)
   036C C7s00r03            499 	sta	(___fsmul_PARM_1 + 3)
   036F CDs00r00            500 	jsr	___fsmul
   0372 C7s00r03            501 	sta	(___fsadd_PARM_2 + 3)
   0375 CFs00r02            502 	stx	(___fsadd_PARM_2 + 2)
   0378 B6*00               503 	lda	*__ret2
   037A C7s00r01            504 	sta	(___fsadd_PARM_2 + 1)
   037D B6*00               505 	lda	*__ret3
   037F C7s00r00            506 	sta	___fsadd_PARM_2
   0382 C6s00r05            507 	lda	_asincosf_y_1_1
   0385 C7s00r00            508 	sta	___fsadd_PARM_1
   0388 C6s00r06            509 	lda	(_asincosf_y_1_1 + 1)
   038B C7s00r01            510 	sta	(___fsadd_PARM_1 + 1)
   038E C6s00r07            511 	lda	(_asincosf_y_1_1 + 2)
   0391 C7s00r02            512 	sta	(___fsadd_PARM_1 + 2)
   0394 C6s00r08            513 	lda	(_asincosf_y_1_1 + 3)
   0397 C7s00r03            514 	sta	(___fsadd_PARM_1 + 3)
   039A CDs00r00            515 	jsr	___fsadd
   039D C7s00r10            516 	sta	(_asincosf_r_1_1 + 3)
   03A0 CFs00r0F            517 	stx	(_asincosf_r_1_1 + 2)
   03A3 B6*00               518 	lda	*__ret2
   03A5 C7s00r0E            519 	sta	(_asincosf_r_1_1 + 1)
   03A8 B6*00               520 	lda	*__ret3
   03AA C7s00r0D            521 	sta	_asincosf_r_1_1
   03AD                     522 00108$:
                            523 ;../asincosf.c:73: if (isacos)
   03AD C6s00r04            524 	lda	_asincosf_PARM_2
   03B0 26 03               525 	bne	00129$
   03B2 CCs04rE4            526 	jmp	00115$
   03B5                     527 00129$:
                            528 ;../asincosf.c:75: if (x < 0.0)
   03B5 C6s00r00            529 	lda	_asincosf_PARM_1
   03B8 C7s00r00            530 	sta	___fslt_PARM_1
   03BB C6s00r01            531 	lda	(_asincosf_PARM_1 + 1)
   03BE C7s00r01            532 	sta	(___fslt_PARM_1 + 1)
   03C1 C6s00r02            533 	lda	(_asincosf_PARM_1 + 2)
   03C4 C7s00r02            534 	sta	(___fslt_PARM_1 + 2)
   03C7 C6s00r03            535 	lda	(_asincosf_PARM_1 + 3)
   03CA C7s00r03            536 	sta	(___fslt_PARM_1 + 3)
   03CD 4F                  537 	clra
   03CE C7s00r00            538 	sta	___fslt_PARM_2
   03D1 C7s00r01            539 	sta	(___fslt_PARM_2 + 1)
   03D4 C7s00r02            540 	sta	(___fslt_PARM_2 + 2)
   03D7 C7s00r03            541 	sta	(___fslt_PARM_2 + 3)
   03DA CDs00r00            542 	jsr	___fslt
   03DD B7*01               543 	sta	*_asincosf_sloc1_1_0
   03DF 3D*01               544 	tst	*_asincosf_sloc1_1_0
   03E1 26 03               545 	bne	00130$
   03E3 CCs04r65            546 	jmp	00110$
   03E6                     547 00130$:
                            548 ;../asincosf.c:76: r = (b[i] + r) + b[i];
   03E6 C6s00r11            549 	lda	_asincosf_quartPI_1_1
   03E9 48                  550 	lsla	
   03EA 48                  551 	lsla	
   03EB 97                  552 	tax
   03EC 8C                  553 	clrh
   03ED D6s00r1A            554 	lda	_asincosf_b_1_1,x
   03F0 C7s00r00            555 	sta	___fsadd_PARM_1
   03F3 D6s00r1B            556 	lda	(_asincosf_b_1_1 + 1),x
   03F6 C7s00r01            557 	sta	(___fsadd_PARM_1 + 1)
   03F9 D6s00r1C            558 	lda	(_asincosf_b_1_1 + 2),x
   03FC C7s00r02            559 	sta	(___fsadd_PARM_1 + 2)
   03FF D6s00r1D            560 	lda	(_asincosf_b_1_1 + 3),x
   0402 C7s00r03            561 	sta	(___fsadd_PARM_1 + 3)
   0405 C6s00r0D            562 	lda	_asincosf_r_1_1
   0408 C7s00r00            563 	sta	___fsadd_PARM_2
   040B C6s00r0E            564 	lda	(_asincosf_r_1_1 + 1)
   040E C7s00r01            565 	sta	(___fsadd_PARM_2 + 1)
   0411 C6s00r0F            566 	lda	(_asincosf_r_1_1 + 2)
   0414 C7s00r02            567 	sta	(___fsadd_PARM_2 + 2)
   0417 C6s00r10            568 	lda	(_asincosf_r_1_1 + 3)
   041A C7s00r03            569 	sta	(___fsadd_PARM_2 + 3)
   041D CDs00r00            570 	jsr	___fsadd
   0420 C7s00r03            571 	sta	(___fsadd_PARM_1 + 3)
   0423 CFs00r02            572 	stx	(___fsadd_PARM_1 + 2)
   0426 B6*00               573 	lda	*__ret2
   0428 C7s00r01            574 	sta	(___fsadd_PARM_1 + 1)
   042B B6*00               575 	lda	*__ret3
   042D C7s00r00            576 	sta	___fsadd_PARM_1
   0430 C6s00r11            577 	lda	_asincosf_quartPI_1_1
   0433 48                  578 	lsla	
   0434 48                  579 	lsla	
   0435 97                  580 	tax
   0436 8C                  581 	clrh
   0437 D6s00r1A            582 	lda	_asincosf_b_1_1,x
   043A C7s00r00            583 	sta	___fsadd_PARM_2
   043D D6s00r1B            584 	lda	(_asincosf_b_1_1 + 1),x
   0440 C7s00r01            585 	sta	(___fsadd_PARM_2 + 1)
   0443 D6s00r1C            586 	lda	(_asincosf_b_1_1 + 2),x
   0446 C7s00r02            587 	sta	(___fsadd_PARM_2 + 2)
   0449 D6s00r1D            588 	lda	(_asincosf_b_1_1 + 3),x
   044C C7s00r03            589 	sta	(___fsadd_PARM_2 + 3)
   044F CDs00r00            590 	jsr	___fsadd
   0452 C7s00r10            591 	sta	(_asincosf_r_1_1 + 3)
   0455 CFs00r0F            592 	stx	(_asincosf_r_1_1 + 2)
   0458 B6*00               593 	lda	*__ret2
   045A C7s00r0E            594 	sta	(_asincosf_r_1_1 + 1)
   045D B6*00               595 	lda	*__ret3
   045F C7s00r0D            596 	sta	_asincosf_r_1_1
   0462 CCs05r96            597 	jmp	00116$
   0465                     598 00110$:
                            599 ;../asincosf.c:78: r = (a[i] - r) + a[i];
   0465 C6s00r11            600 	lda	_asincosf_quartPI_1_1
   0468 48                  601 	lsla	
   0469 48                  602 	lsla	
   046A 97                  603 	tax
   046B 8C                  604 	clrh
   046C D6s00r12            605 	lda	_asincosf_a_1_1,x
   046F C7s00r00            606 	sta	___fssub_PARM_1
   0472 D6s00r13            607 	lda	(_asincosf_a_1_1 + 1),x
   0475 C7s00r01            608 	sta	(___fssub_PARM_1 + 1)
   0478 D6s00r14            609 	lda	(_asincosf_a_1_1 + 2),x
   047B C7s00r02            610 	sta	(___fssub_PARM_1 + 2)
   047E D6s00r15            611 	lda	(_asincosf_a_1_1 + 3),x
   0481 C7s00r03            612 	sta	(___fssub_PARM_1 + 3)
   0484 C6s00r0D            613 	lda	_asincosf_r_1_1
   0487 C7s00r00            614 	sta	___fssub_PARM_2
   048A C6s00r0E            615 	lda	(_asincosf_r_1_1 + 1)
   048D C7s00r01            616 	sta	(___fssub_PARM_2 + 1)
   0490 C6s00r0F            617 	lda	(_asincosf_r_1_1 + 2)
   0493 C7s00r02            618 	sta	(___fssub_PARM_2 + 2)
   0496 C6s00r10            619 	lda	(_asincosf_r_1_1 + 3)
   0499 C7s00r03            620 	sta	(___fssub_PARM_2 + 3)
   049C CDs00r00            621 	jsr	___fssub
   049F C7s00r03            622 	sta	(___fsadd_PARM_1 + 3)
   04A2 CFs00r02            623 	stx	(___fsadd_PARM_1 + 2)
   04A5 B6*00               624 	lda	*__ret2
   04A7 C7s00r01            625 	sta	(___fsadd_PARM_1 + 1)
   04AA B6*00               626 	lda	*__ret3
   04AC C7s00r00            627 	sta	___fsadd_PARM_1
   04AF C6s00r11            628 	lda	_asincosf_quartPI_1_1
   04B2 48                  629 	lsla	
   04B3 48                  630 	lsla	
   04B4 97                  631 	tax
   04B5 8C                  632 	clrh
   04B6 D6s00r12            633 	lda	_asincosf_a_1_1,x
   04B9 C7s00r00            634 	sta	___fsadd_PARM_2
   04BC D6s00r13            635 	lda	(_asincosf_a_1_1 + 1),x
   04BF C7s00r01            636 	sta	(___fsadd_PARM_2 + 1)
   04C2 D6s00r14            637 	lda	(_asincosf_a_1_1 + 2),x
   04C5 C7s00r02            638 	sta	(___fsadd_PARM_2 + 2)
   04C8 D6s00r15            639 	lda	(_asincosf_a_1_1 + 3),x
   04CB C7s00r03            640 	sta	(___fsadd_PARM_2 + 3)
   04CE CDs00r00            641 	jsr	___fsadd
   04D1 C7s00r10            642 	sta	(_asincosf_r_1_1 + 3)
   04D4 CFs00r0F            643 	stx	(_asincosf_r_1_1 + 2)
   04D7 B6*00               644 	lda	*__ret2
   04D9 C7s00r0E            645 	sta	(_asincosf_r_1_1 + 1)
   04DC B6*00               646 	lda	*__ret3
   04DE C7s00r0D            647 	sta	_asincosf_r_1_1
   04E1 CCs05r96            648 	jmp	00116$
   04E4                     649 00115$:
                            650 ;../asincosf.c:82: r = (a[i] + r) + a[i];
   04E4 C6s00r11            651 	lda	_asincosf_quartPI_1_1
   04E7 48                  652 	lsla	
   04E8 48                  653 	lsla	
   04E9 97                  654 	tax
   04EA 8C                  655 	clrh
   04EB D6s00r12            656 	lda	_asincosf_a_1_1,x
   04EE C7s00r00            657 	sta	___fsadd_PARM_1
   04F1 D6s00r13            658 	lda	(_asincosf_a_1_1 + 1),x
   04F4 C7s00r01            659 	sta	(___fsadd_PARM_1 + 1)
   04F7 D6s00r14            660 	lda	(_asincosf_a_1_1 + 2),x
   04FA C7s00r02            661 	sta	(___fsadd_PARM_1 + 2)
   04FD D6s00r15            662 	lda	(_asincosf_a_1_1 + 3),x
   0500 C7s00r03            663 	sta	(___fsadd_PARM_1 + 3)
   0503 C6s00r0D            664 	lda	_asincosf_r_1_1
   0506 C7s00r00            665 	sta	___fsadd_PARM_2
   0509 C6s00r0E            666 	lda	(_asincosf_r_1_1 + 1)
   050C C7s00r01            667 	sta	(___fsadd_PARM_2 + 1)
   050F C6s00r0F            668 	lda	(_asincosf_r_1_1 + 2)
   0512 C7s00r02            669 	sta	(___fsadd_PARM_2 + 2)
   0515 C6s00r10            670 	lda	(_asincosf_r_1_1 + 3)
   0518 C7s00r03            671 	sta	(___fsadd_PARM_2 + 3)
   051B CDs00r00            672 	jsr	___fsadd
   051E C7s00r03            673 	sta	(___fsadd_PARM_1 + 3)
   0521 CFs00r02            674 	stx	(___fsadd_PARM_1 + 2)
   0524 B6*00               675 	lda	*__ret2
   0526 C7s00r01            676 	sta	(___fsadd_PARM_1 + 1)
   0529 B6*00               677 	lda	*__ret3
   052B C7s00r00            678 	sta	___fsadd_PARM_1
   052E C6s00r11            679 	lda	_asincosf_quartPI_1_1
   0531 48                  680 	lsla	
   0532 48                  681 	lsla	
   0533 97                  682 	tax
   0534 8C                  683 	clrh
   0535 D6s00r12            684 	lda	_asincosf_a_1_1,x
   0538 C7s00r00            685 	sta	___fsadd_PARM_2
   053B D6s00r13            686 	lda	(_asincosf_a_1_1 + 1),x
   053E C7s00r01            687 	sta	(___fsadd_PARM_2 + 1)
   0541 D6s00r14            688 	lda	(_asincosf_a_1_1 + 2),x
   0544 C7s00r02            689 	sta	(___fsadd_PARM_2 + 2)
   0547 D6s00r15            690 	lda	(_asincosf_a_1_1 + 3),x
   054A C7s00r03            691 	sta	(___fsadd_PARM_2 + 3)
   054D CDs00r00            692 	jsr	___fsadd
   0550 C7s00r10            693 	sta	(_asincosf_r_1_1 + 3)
   0553 CFs00r0F            694 	stx	(_asincosf_r_1_1 + 2)
   0556 B6*00               695 	lda	*__ret2
   0558 C7s00r0E            696 	sta	(_asincosf_r_1_1 + 1)
   055B B6*00               697 	lda	*__ret3
   055D C7s00r0D            698 	sta	_asincosf_r_1_1
                            699 ;../asincosf.c:83: if (x < 0.0)
   0560 C6s00r00            700 	lda	_asincosf_PARM_1
   0563 C7s00r00            701 	sta	___fslt_PARM_1
   0566 C6s00r01            702 	lda	(_asincosf_PARM_1 + 1)
   0569 C7s00r01            703 	sta	(___fslt_PARM_1 + 1)
   056C C6s00r02            704 	lda	(_asincosf_PARM_1 + 2)
   056F C7s00r02            705 	sta	(___fslt_PARM_1 + 2)
   0572 C6s00r03            706 	lda	(_asincosf_PARM_1 + 3)
   0575 C7s00r03            707 	sta	(___fslt_PARM_1 + 3)
   0578 4F                  708 	clra
   0579 C7s00r00            709 	sta	___fslt_PARM_2
   057C C7s00r01            710 	sta	(___fslt_PARM_2 + 1)
   057F C7s00r02            711 	sta	(___fslt_PARM_2 + 2)
   0582 C7s00r03            712 	sta	(___fslt_PARM_2 + 3)
   0585 CDs00r00            713 	jsr	___fslt
   0588 B7*01               714 	sta	*_asincosf_sloc1_1_0
   058A 3D*01               715 	tst	*_asincosf_sloc1_1_0
   058C 27 08               716 	beq	00116$
   058E                     717 00131$:
                            718 ;../asincosf.c:84: r = -r;
   058E C6s00r0D            719 	lda	_asincosf_r_1_1
   0591 A8 80               720 	eor	#0x80
   0593 C7s00r0D            721 	sta	_asincosf_r_1_1
   0596                     722 00116$:
                            723 ;../asincosf.c:86: return r;
   0596 C6s00r0D            724 	lda	_asincosf_r_1_1
   0599 B7*00               725 	sta	*__ret3
   059B C6s00r0E            726 	lda	(_asincosf_r_1_1 + 1)
   059E B7*00               727 	sta	*__ret2
   05A0 CEs00r0F            728 	ldx	(_asincosf_r_1_1 + 2)
   05A3 C6s00r10            729 	lda	(_asincosf_r_1_1 + 3)
   05A6                     730 00117$:
   05A6 81                  731 	rts
                            732 	.area CSEG (CODE)
                            733 	.area CONST   (CODE)
                            734 	.area XINIT
                            735 	.area CABS    (ABS,CODE)
