                              1 ;--------------------------------------------------------
                              2 ; File Created by SDCC : free open source ANSI-C Compiler
                              3 ; Version 2.9.4 #5595 (Oct 23 2013) (Mac OS X ppc)
                              4 ; This file was generated Wed Oct 23 12:25:37 2013
                              5 ;--------------------------------------------------------
                              6 	.module sincosf
                              7 	.optsdcc -mhc08
                              8 	
                              9 	.area HOME (CODE)
                             10 	.area GSINIT0 (CODE)
                             11 	.area GSINIT (CODE)
                             12 	.area GSFINAL (CODE)
                             13 	.area CSEG (CODE)
                             14 	.area XINIT
                             15 	.area CONST   (CODE)
                             16 	.area DSEG
                             17 	.area OSEG    (OVR)
                             18 	.area BSEG
                             19 	.area XSEG
                             20 	.area XISEG
                             21 ;--------------------------------------------------------
                             22 ; Public variables in this module
                             23 ;--------------------------------------------------------
                             24 	.globl _sincosf
                             25 	.globl _sincosf_PARM_2
                             26 	.globl _sincosf_PARM_1
                             27 ;--------------------------------------------------------
                             28 ;  ram data
                             29 ;--------------------------------------------------------
                             30 	.area DSEG
   0000                      31 _sincosf_sloc0_1_0:
   0000                      32 	.ds 1
   0001                      33 _sincosf_sloc1_1_0:
   0001                      34 	.ds 4
                             35 ;--------------------------------------------------------
                             36 ; overlayable items in  ram 
                             37 ;--------------------------------------------------------
                             38 	.area OSEG    (OVR)
                             39 ;--------------------------------------------------------
                             40 ; absolute external ram data
                             41 ;--------------------------------------------------------
                             42 	.area XABS    (ABS)
                             43 ;--------------------------------------------------------
                             44 ; external initialized ram data
                             45 ;--------------------------------------------------------
                             46 	.area XISEG
                             47 ;--------------------------------------------------------
                             48 ; extended address mode data
                             49 ;--------------------------------------------------------
                             50 	.area XSEG
   0000                      51 _sincosf_PARM_1:
   0000                      52 	.ds 4
   0004                      53 _sincosf_PARM_2:
   0004                      54 	.ds 1
   0005                      55 _sincosf_y_1_1:
   0005                      56 	.ds 4
   0009                      57 _sincosf_f_1_1:
   0009                      58 	.ds 4
   000D                      59 _sincosf_r_1_1:
   000D                      60 	.ds 4
   0011                      61 _sincosf_g_1_1:
   0011                      62 	.ds 4
   0015                      63 _sincosf_XN_1_1:
   0015                      64 	.ds 4
   0019                      65 _sincosf_N_1_1:
   0019                      66 	.ds 2
   001B                      67 _sincosf_sign_1_1:
   001B                      68 	.ds 1
                             69 ;--------------------------------------------------------
                             70 ; global & static initialisations
                             71 ;--------------------------------------------------------
                             72 	.area HOME (CODE)
                             73 	.area GSINIT (CODE)
                             74 	.area GSFINAL (CODE)
                             75 	.area GSINIT (CODE)
                             76 ;--------------------------------------------------------
                             77 ; Home
                             78 ;--------------------------------------------------------
                             79 	.area HOME (CODE)
                             80 	.area HOME (CODE)
                             81 ;--------------------------------------------------------
                             82 ; code
                             83 ;--------------------------------------------------------
                             84 	.area CSEG (CODE)
                             85 ;------------------------------------------------------------
                             86 ;Allocation info for local variables in function 'sincosf'
                             87 ;------------------------------------------------------------
                             88 ;sloc0                     Allocated with name '_sincosf_sloc0_1_0'
                             89 ;sloc1                     Allocated with name '_sincosf_sloc1_1_0'
                             90 ;x                         Allocated with name '_sincosf_PARM_1'
                             91 ;iscos                     Allocated with name '_sincosf_PARM_2'
                             92 ;y                         Allocated with name '_sincosf_y_1_1'
                             93 ;f                         Allocated with name '_sincosf_f_1_1'
                             94 ;r                         Allocated with name '_sincosf_r_1_1'
                             95 ;g                         Allocated with name '_sincosf_g_1_1'
                             96 ;XN                        Allocated with name '_sincosf_XN_1_1'
                             97 ;N                         Allocated with name '_sincosf_N_1_1'
                             98 ;sign                      Allocated with name '_sincosf_sign_1_1'
                             99 ;------------------------------------------------------------
                            100 ;../sincosf.c:40: float sincosf(const float x, const BOOL iscos)
                            101 ;	-----------------------------------------
                            102 ;	 function sincosf
                            103 ;	-----------------------------------------
   0000                     104 _sincosf:
                            105 ;../sincosf.c:46: if(iscos)
   0000 C6s00r04            106 	lda	_sincosf_PARM_2
   0003 27 52               107 	beq	00105$
   0005                     108 00126$:
                            109 ;../sincosf.c:48: y=fabsf(x)+HALF_PI;
   0005 C6s00r03            110 	lda	(_sincosf_PARM_1 + 3)
   0008 87                  111 	psha
   0009 C6s00r02            112 	lda	(_sincosf_PARM_1 + 2)
   000C 87                  113 	psha
   000D C6s00r01            114 	lda	(_sincosf_PARM_1 + 1)
   0010 87                  115 	psha
   0011 C6s00r00            116 	lda	_sincosf_PARM_1
   0014 87                  117 	psha
   0015 CDs00r00            118 	jsr	_fabsf
   0018 C7s00r03            119 	sta	(___fsadd_PARM_1 + 3)
   001B CFs00r02            120 	stx	(___fsadd_PARM_1 + 2)
   001E B6*00               121 	lda	*__ret2
   0020 C7s00r01            122 	sta	(___fsadd_PARM_1 + 1)
   0023 B6*00               123 	lda	*__ret3
   0025 C7s00r00            124 	sta	___fsadd_PARM_1
   0028 A7 04               125 	ais	#4
   002A A6 3F               126 	lda	#0x3F
   002C C7s00r00            127 	sta	___fsadd_PARM_2
   002F A6 C9               128 	lda	#0xC9
   0031 C7s00r01            129 	sta	(___fsadd_PARM_2 + 1)
   0034 A6 0F               130 	lda	#0x0F
   0036 C7s00r02            131 	sta	(___fsadd_PARM_2 + 2)
   0039 A6 DB               132 	lda	#0xDB
   003B C7s00r03            133 	sta	(___fsadd_PARM_2 + 3)
   003E CDs00r00            134 	jsr	___fsadd
   0041 C7s00r08            135 	sta	(_sincosf_y_1_1 + 3)
   0044 CFs00r07            136 	stx	(_sincosf_y_1_1 + 2)
   0047 B6*00               137 	lda	*__ret2
   0049 C7s00r06            138 	sta	(_sincosf_y_1_1 + 1)
   004C B6*00               139 	lda	*__ret3
   004E C7s00r05            140 	sta	_sincosf_y_1_1
                            141 ;../sincosf.c:49: sign=0;
   0051 4F                  142 	clra
   0052 C7s00r1B            143 	sta	_sincosf_sign_1_1
   0055 20 6B               144 	bra	00106$
   0057                     145 00105$:
                            146 ;../sincosf.c:53: if(x<0.0)
   0057 C6s00r00            147 	lda	_sincosf_PARM_1
   005A C7s00r00            148 	sta	___fslt_PARM_1
   005D C6s00r01            149 	lda	(_sincosf_PARM_1 + 1)
   0060 C7s00r01            150 	sta	(___fslt_PARM_1 + 1)
   0063 C6s00r02            151 	lda	(_sincosf_PARM_1 + 2)
   0066 C7s00r02            152 	sta	(___fslt_PARM_1 + 2)
   0069 C6s00r03            153 	lda	(_sincosf_PARM_1 + 3)
   006C C7s00r03            154 	sta	(___fslt_PARM_1 + 3)
   006F 4F                  155 	clra
   0070 C7s00r00            156 	sta	___fslt_PARM_2
   0073 C7s00r01            157 	sta	(___fslt_PARM_2 + 1)
   0076 C7s00r02            158 	sta	(___fslt_PARM_2 + 2)
   0079 C7s00r03            159 	sta	(___fslt_PARM_2 + 3)
   007C CDs00r00            160 	jsr	___fslt
   007F B7*00               161 	sta	*_sincosf_sloc0_1_0
   0081 3D*00               162 	tst	*_sincosf_sloc0_1_0
   0083 27 21               163 	beq	00102$
   0085                     164 00127$:
                            165 ;../sincosf.c:54: { y=-x; sign=1; }
   0085 C6s00r03            166 	lda	(_sincosf_PARM_1 + 3)
   0088 C7s00r08            167 	sta	(_sincosf_y_1_1 + 3)
   008B C6s00r02            168 	lda	(_sincosf_PARM_1 + 2)
   008E C7s00r07            169 	sta	(_sincosf_y_1_1 + 2)
   0091 C6s00r01            170 	lda	(_sincosf_PARM_1 + 1)
   0094 C7s00r06            171 	sta	(_sincosf_y_1_1 + 1)
   0097 C6s00r00            172 	lda	_sincosf_PARM_1
   009A A8 80               173 	eor	#0x80
   009C C7s00r05            174 	sta	_sincosf_y_1_1
   009F A6 01               175 	lda	#0x01
   00A1 C7s00r1B            176 	sta	_sincosf_sign_1_1
   00A4 20 1C               177 	bra	00106$
   00A6                     178 00102$:
                            179 ;../sincosf.c:56: { y=x; sign=0; }
   00A6 C6s00r00            180 	lda	_sincosf_PARM_1
   00A9 C7s00r05            181 	sta	_sincosf_y_1_1
   00AC C6s00r01            182 	lda	(_sincosf_PARM_1 + 1)
   00AF C7s00r06            183 	sta	(_sincosf_y_1_1 + 1)
   00B2 C6s00r02            184 	lda	(_sincosf_PARM_1 + 2)
   00B5 C7s00r07            185 	sta	(_sincosf_y_1_1 + 2)
   00B8 C6s00r03            186 	lda	(_sincosf_PARM_1 + 3)
   00BB C7s00r08            187 	sta	(_sincosf_y_1_1 + 3)
   00BE 4F                  188 	clra
   00BF C7s00r1B            189 	sta	_sincosf_sign_1_1
   00C2                     190 00106$:
                            191 ;../sincosf.c:59: if(y>YMAX)
   00C2 C6s00r05            192 	lda	_sincosf_y_1_1
   00C5 C7s00r00            193 	sta	___fsgt_PARM_1
   00C8 C6s00r06            194 	lda	(_sincosf_y_1_1 + 1)
   00CB C7s00r01            195 	sta	(___fsgt_PARM_1 + 1)
   00CE C6s00r07            196 	lda	(_sincosf_y_1_1 + 2)
   00D1 C7s00r02            197 	sta	(___fsgt_PARM_1 + 2)
   00D4 C6s00r08            198 	lda	(_sincosf_y_1_1 + 3)
   00D7 C7s00r03            199 	sta	(___fsgt_PARM_1 + 3)
   00DA A6 46               200 	lda	#0x46
   00DC C7s00r00            201 	sta	___fsgt_PARM_2
   00DF A6 49               202 	lda	#0x49
   00E1 C7s00r01            203 	sta	(___fsgt_PARM_2 + 1)
   00E4 A6 0C               204 	lda	#0x0C
   00E6 C7s00r02            205 	sta	(___fsgt_PARM_2 + 2)
   00E9 4F                  206 	clra
   00EA C7s00r03            207 	sta	(___fsgt_PARM_2 + 3)
   00ED CDs00r00            208 	jsr	___fsgt
   00F0 B7*00               209 	sta	*_sincosf_sloc0_1_0
   00F2 3D*00               210 	tst	*_sincosf_sloc0_1_0
   00F4 27 10               211 	beq	00108$
   00F6                     212 00128$:
                            213 ;../sincosf.c:61: errno=ERANGE;
   00F6 4F                  214 	clra
   00F7 C7s00r00            215 	sta	_errno
   00FA A6 22               216 	lda	#0x22
   00FC C7s00r01            217 	sta	(_errno + 1)
                            218 ;../sincosf.c:62: return 0.0;
   00FF 3F*00               219 	clr	*__ret3
   0101 3F*00               220 	clr	*__ret2
   0103 5F                  221 	clrx
   0104 4F                  222 	clra
   0105 81                  223 	rts
   0106                     224 00108$:
                            225 ;../sincosf.c:66: N=((y*iPI)+0.5); /*y is positive*/
   0106 A6 3E               226 	lda	#0x3E
   0108 C7s00r00            227 	sta	___fsmul_PARM_1
   010B A6 A2               228 	lda	#0xA2
   010D C7s00r01            229 	sta	(___fsmul_PARM_1 + 1)
   0110 A6 F9               230 	lda	#0xF9
   0112 C7s00r02            231 	sta	(___fsmul_PARM_1 + 2)
   0115 A6 83               232 	lda	#0x83
   0117 C7s00r03            233 	sta	(___fsmul_PARM_1 + 3)
   011A C6s00r05            234 	lda	_sincosf_y_1_1
   011D C7s00r00            235 	sta	___fsmul_PARM_2
   0120 C6s00r06            236 	lda	(_sincosf_y_1_1 + 1)
   0123 C7s00r01            237 	sta	(___fsmul_PARM_2 + 1)
   0126 C6s00r07            238 	lda	(_sincosf_y_1_1 + 2)
   0129 C7s00r02            239 	sta	(___fsmul_PARM_2 + 2)
   012C C6s00r08            240 	lda	(_sincosf_y_1_1 + 3)
   012F C7s00r03            241 	sta	(___fsmul_PARM_2 + 3)
   0132 CDs00r00            242 	jsr	___fsmul
   0135 C7s00r03            243 	sta	(___fsadd_PARM_1 + 3)
   0138 CFs00r02            244 	stx	(___fsadd_PARM_1 + 2)
   013B B6*00               245 	lda	*__ret2
   013D C7s00r01            246 	sta	(___fsadd_PARM_1 + 1)
   0140 B6*00               247 	lda	*__ret3
   0142 C7s00r00            248 	sta	___fsadd_PARM_1
   0145 A6 3F               249 	lda	#0x3F
   0147 C7s00r00            250 	sta	___fsadd_PARM_2
   014A 4F                  251 	clra
   014B C7s00r01            252 	sta	(___fsadd_PARM_2 + 1)
   014E C7s00r02            253 	sta	(___fsadd_PARM_2 + 2)
   0151 C7s00r03            254 	sta	(___fsadd_PARM_2 + 3)
   0154 CDs00r00            255 	jsr	___fsadd
   0157 C7s00r03            256 	sta	(___fs2sint_PARM_1 + 3)
   015A CFs00r02            257 	stx	(___fs2sint_PARM_1 + 2)
   015D B6*00               258 	lda	*__ret2
   015F C7s00r01            259 	sta	(___fs2sint_PARM_1 + 1)
   0162 B6*00               260 	lda	*__ret3
   0164 C7s00r00            261 	sta	___fs2sint_PARM_1
   0167 CDs00r00            262 	jsr	___fs2sint
   016A C7s00r1A            263 	sta	(_sincosf_N_1_1 + 1)
   016D CFs00r19            264 	stx	_sincosf_N_1_1
                            265 ;../sincosf.c:69: if(N&1) sign=!sign;
   0170 C6s00r1A            266 	lda	(_sincosf_N_1_1 + 1)
   0173 A4 01               267 	and	#0x01
   0175 26 00               268 	bne	00129$
   0177                     269 00129$:
   0177 27 0C               270 	beq	00110$
   0179                     271 00130$:
   0179 C6s00r1B            272 	lda	_sincosf_sign_1_1
   017C 27 02               273 	beq	00131$
   017E A6 01               274 	lda	#0x01
   0180                     275 00131$:
   0180 A8 01               276 	eor	#0x01
   0182 C7s00r1B            277 	sta	_sincosf_sign_1_1
   0185                     278 00110$:
                            279 ;../sincosf.c:71: XN=N;
   0185 CEs00r19            280 	ldx	_sincosf_N_1_1
   0188 C6s00r1A            281 	lda	(_sincosf_N_1_1 + 1)
   018B CDs00r00            282 	jsr	___sint2fs
   018E C7s00r18            283 	sta	(_sincosf_XN_1_1 + 3)
   0191 CFs00r17            284 	stx	(_sincosf_XN_1_1 + 2)
   0194 B6*00               285 	lda	*__ret2
   0196 C7s00r16            286 	sta	(_sincosf_XN_1_1 + 1)
   0199 B6*00               287 	lda	*__ret3
   019B C7s00r15            288 	sta	_sincosf_XN_1_1
                            289 ;../sincosf.c:73: if(iscos) XN-=0.5;
   019E C6s00r04            290 	lda	_sincosf_PARM_2
   01A1 27 3A               291 	beq	00112$
   01A3                     292 00132$:
   01A3 C6s00r15            293 	lda	_sincosf_XN_1_1
   01A6 C7s00r00            294 	sta	___fssub_PARM_1
   01A9 C6s00r16            295 	lda	(_sincosf_XN_1_1 + 1)
   01AC C7s00r01            296 	sta	(___fssub_PARM_1 + 1)
   01AF C6s00r17            297 	lda	(_sincosf_XN_1_1 + 2)
   01B2 C7s00r02            298 	sta	(___fssub_PARM_1 + 2)
   01B5 C6s00r18            299 	lda	(_sincosf_XN_1_1 + 3)
   01B8 C7s00r03            300 	sta	(___fssub_PARM_1 + 3)
   01BB A6 3F               301 	lda	#0x3F
   01BD C7s00r00            302 	sta	___fssub_PARM_2
   01C0 4F                  303 	clra
   01C1 C7s00r01            304 	sta	(___fssub_PARM_2 + 1)
   01C4 C7s00r02            305 	sta	(___fssub_PARM_2 + 2)
   01C7 C7s00r03            306 	sta	(___fssub_PARM_2 + 3)
   01CA CDs00r00            307 	jsr	___fssub
   01CD C7s00r18            308 	sta	(_sincosf_XN_1_1 + 3)
   01D0 CFs00r17            309 	stx	(_sincosf_XN_1_1 + 2)
   01D3 B6*00               310 	lda	*__ret2
   01D5 C7s00r16            311 	sta	(_sincosf_XN_1_1 + 1)
   01D8 B6*00               312 	lda	*__ret3
   01DA C7s00r15            313 	sta	_sincosf_XN_1_1
   01DD                     314 00112$:
                            315 ;../sincosf.c:75: y=fabsf(x);
   01DD C6s00r03            316 	lda	(_sincosf_PARM_1 + 3)
   01E0 87                  317 	psha
   01E1 C6s00r02            318 	lda	(_sincosf_PARM_1 + 2)
   01E4 87                  319 	psha
   01E5 C6s00r01            320 	lda	(_sincosf_PARM_1 + 1)
   01E8 87                  321 	psha
   01E9 C6s00r00            322 	lda	_sincosf_PARM_1
   01EC 87                  323 	psha
   01ED CDs00r00            324 	jsr	_fabsf
   01F0 C7s00r08            325 	sta	(_sincosf_y_1_1 + 3)
   01F3 CFs00r07            326 	stx	(_sincosf_y_1_1 + 2)
   01F6 B6*00               327 	lda	*__ret2
   01F8 C7s00r06            328 	sta	(_sincosf_y_1_1 + 1)
   01FB B6*00               329 	lda	*__ret3
   01FD C7s00r05            330 	sta	_sincosf_y_1_1
   0200 A7 04               331 	ais	#4
                            332 ;../sincosf.c:76: r=(int)y;
   0202 C6s00r05            333 	lda	_sincosf_y_1_1
   0205 C7s00r00            334 	sta	___fs2sint_PARM_1
   0208 C6s00r06            335 	lda	(_sincosf_y_1_1 + 1)
   020B C7s00r01            336 	sta	(___fs2sint_PARM_1 + 1)
   020E C6s00r07            337 	lda	(_sincosf_y_1_1 + 2)
   0211 C7s00r02            338 	sta	(___fs2sint_PARM_1 + 2)
   0214 C6s00r08            339 	lda	(_sincosf_y_1_1 + 3)
   0217 C7s00r03            340 	sta	(___fs2sint_PARM_1 + 3)
   021A CDs00r00            341 	jsr	___fs2sint
   021D CDs00r00            342 	jsr	___sint2fs
   0220 C7s00r10            343 	sta	(_sincosf_r_1_1 + 3)
   0223 CFs00r0F            344 	stx	(_sincosf_r_1_1 + 2)
   0226 B6*00               345 	lda	*__ret2
   0228 C7s00r0E            346 	sta	(_sincosf_r_1_1 + 1)
   022B B6*00               347 	lda	*__ret3
   022D C7s00r0D            348 	sta	_sincosf_r_1_1
                            349 ;../sincosf.c:77: g=y-r;
   0230 C6s00r05            350 	lda	_sincosf_y_1_1
   0233 C7s00r00            351 	sta	___fssub_PARM_1
   0236 C6s00r06            352 	lda	(_sincosf_y_1_1 + 1)
   0239 C7s00r01            353 	sta	(___fssub_PARM_1 + 1)
   023C C6s00r07            354 	lda	(_sincosf_y_1_1 + 2)
   023F C7s00r02            355 	sta	(___fssub_PARM_1 + 2)
   0242 C6s00r08            356 	lda	(_sincosf_y_1_1 + 3)
   0245 C7s00r03            357 	sta	(___fssub_PARM_1 + 3)
   0248 C6s00r0D            358 	lda	_sincosf_r_1_1
   024B C7s00r00            359 	sta	___fssub_PARM_2
   024E C6s00r0E            360 	lda	(_sincosf_r_1_1 + 1)
   0251 C7s00r01            361 	sta	(___fssub_PARM_2 + 1)
   0254 C6s00r0F            362 	lda	(_sincosf_r_1_1 + 2)
   0257 C7s00r02            363 	sta	(___fssub_PARM_2 + 2)
   025A C6s00r10            364 	lda	(_sincosf_r_1_1 + 3)
   025D C7s00r03            365 	sta	(___fssub_PARM_2 + 3)
   0260 CDs00r00            366 	jsr	___fssub
   0263 C7s00r14            367 	sta	(_sincosf_g_1_1 + 3)
   0266 CFs00r13            368 	stx	(_sincosf_g_1_1 + 2)
   0269 B6*00               369 	lda	*__ret2
   026B C7s00r12            370 	sta	(_sincosf_g_1_1 + 1)
   026E B6*00               371 	lda	*__ret3
   0270 C7s00r11            372 	sta	_sincosf_g_1_1
                            373 ;../sincosf.c:78: f=((r-XN*C1)+g)-XN*C2;
   0273 A6 40               374 	lda	#0x40
   0275 C7s00r00            375 	sta	___fsmul_PARM_1
   0278 A6 49               376 	lda	#0x49
   027A C7s00r01            377 	sta	(___fsmul_PARM_1 + 1)
   027D 4F                  378 	clra
   027E C7s00r02            379 	sta	(___fsmul_PARM_1 + 2)
   0281 C7s00r03            380 	sta	(___fsmul_PARM_1 + 3)
   0284 C6s00r15            381 	lda	_sincosf_XN_1_1
   0287 C7s00r00            382 	sta	___fsmul_PARM_2
   028A C6s00r16            383 	lda	(_sincosf_XN_1_1 + 1)
   028D C7s00r01            384 	sta	(___fsmul_PARM_2 + 1)
   0290 C6s00r17            385 	lda	(_sincosf_XN_1_1 + 2)
   0293 C7s00r02            386 	sta	(___fsmul_PARM_2 + 2)
   0296 C6s00r18            387 	lda	(_sincosf_XN_1_1 + 3)
   0299 C7s00r03            388 	sta	(___fsmul_PARM_2 + 3)
   029C CDs00r00            389 	jsr	___fsmul
   029F C7s00r03            390 	sta	(___fssub_PARM_2 + 3)
   02A2 CFs00r02            391 	stx	(___fssub_PARM_2 + 2)
   02A5 B6*00               392 	lda	*__ret2
   02A7 C7s00r01            393 	sta	(___fssub_PARM_2 + 1)
   02AA B6*00               394 	lda	*__ret3
   02AC C7s00r00            395 	sta	___fssub_PARM_2
   02AF C6s00r0D            396 	lda	_sincosf_r_1_1
   02B2 C7s00r00            397 	sta	___fssub_PARM_1
   02B5 C6s00r0E            398 	lda	(_sincosf_r_1_1 + 1)
   02B8 C7s00r01            399 	sta	(___fssub_PARM_1 + 1)
   02BB C6s00r0F            400 	lda	(_sincosf_r_1_1 + 2)
   02BE C7s00r02            401 	sta	(___fssub_PARM_1 + 2)
   02C1 C6s00r10            402 	lda	(_sincosf_r_1_1 + 3)
   02C4 C7s00r03            403 	sta	(___fssub_PARM_1 + 3)
   02C7 CDs00r00            404 	jsr	___fssub
   02CA C7s00r03            405 	sta	(___fsadd_PARM_1 + 3)
   02CD CFs00r02            406 	stx	(___fsadd_PARM_1 + 2)
   02D0 B6*00               407 	lda	*__ret2
   02D2 C7s00r01            408 	sta	(___fsadd_PARM_1 + 1)
   02D5 B6*00               409 	lda	*__ret3
   02D7 C7s00r00            410 	sta	___fsadd_PARM_1
   02DA C6s00r11            411 	lda	_sincosf_g_1_1
   02DD C7s00r00            412 	sta	___fsadd_PARM_2
   02E0 C6s00r12            413 	lda	(_sincosf_g_1_1 + 1)
   02E3 C7s00r01            414 	sta	(___fsadd_PARM_2 + 1)
   02E6 C6s00r13            415 	lda	(_sincosf_g_1_1 + 2)
   02E9 C7s00r02            416 	sta	(___fsadd_PARM_2 + 2)
   02EC C6s00r14            417 	lda	(_sincosf_g_1_1 + 3)
   02EF C7s00r03            418 	sta	(___fsadd_PARM_2 + 3)
   02F2 CDs00r00            419 	jsr	___fsadd
   02F5 C7s00r03            420 	sta	(___fssub_PARM_1 + 3)
   02F8 CFs00r02            421 	stx	(___fssub_PARM_1 + 2)
   02FB B6*00               422 	lda	*__ret2
   02FD C7s00r01            423 	sta	(___fssub_PARM_1 + 1)
   0300 B6*00               424 	lda	*__ret3
   0302 C7s00r00            425 	sta	___fssub_PARM_1
   0305 A6 3A               426 	lda	#0x3A
   0307 C7s00r00            427 	sta	___fsmul_PARM_1
   030A A6 7D               428 	lda	#0x7D
   030C C7s00r01            429 	sta	(___fsmul_PARM_1 + 1)
   030F A6 AA               430 	lda	#0xAA
   0311 C7s00r02            431 	sta	(___fsmul_PARM_1 + 2)
   0314 A6 22               432 	lda	#0x22
   0316 C7s00r03            433 	sta	(___fsmul_PARM_1 + 3)
   0319 C6s00r15            434 	lda	_sincosf_XN_1_1
   031C C7s00r00            435 	sta	___fsmul_PARM_2
   031F C6s00r16            436 	lda	(_sincosf_XN_1_1 + 1)
   0322 C7s00r01            437 	sta	(___fsmul_PARM_2 + 1)
   0325 C6s00r17            438 	lda	(_sincosf_XN_1_1 + 2)
   0328 C7s00r02            439 	sta	(___fsmul_PARM_2 + 2)
   032B C6s00r18            440 	lda	(_sincosf_XN_1_1 + 3)
   032E C7s00r03            441 	sta	(___fsmul_PARM_2 + 3)
   0331 CDs00r00            442 	jsr	___fsmul
   0334 C7s00r03            443 	sta	(___fssub_PARM_2 + 3)
   0337 CFs00r02            444 	stx	(___fssub_PARM_2 + 2)
   033A B6*00               445 	lda	*__ret2
   033C C7s00r01            446 	sta	(___fssub_PARM_2 + 1)
   033F B6*00               447 	lda	*__ret3
   0341 C7s00r00            448 	sta	___fssub_PARM_2
   0344 CDs00r00            449 	jsr	___fssub
   0347 C7s00r0C            450 	sta	(_sincosf_f_1_1 + 3)
   034A CFs00r0B            451 	stx	(_sincosf_f_1_1 + 2)
   034D B6*00               452 	lda	*__ret2
   034F C7s00r0A            453 	sta	(_sincosf_f_1_1 + 1)
   0352 B6*00               454 	lda	*__ret3
                            455 ;../sincosf.c:80: g=f*f;
   0354 C7s00r09            456 	sta	_sincosf_f_1_1
   0357 C7s00r00            457 	sta	___fsmul_PARM_1
   035A C6s00r0A            458 	lda	(_sincosf_f_1_1 + 1)
   035D C7s00r01            459 	sta	(___fsmul_PARM_1 + 1)
   0360 C6s00r0B            460 	lda	(_sincosf_f_1_1 + 2)
   0363 C7s00r02            461 	sta	(___fsmul_PARM_1 + 2)
   0366 C6s00r0C            462 	lda	(_sincosf_f_1_1 + 3)
   0369 C7s00r03            463 	sta	(___fsmul_PARM_1 + 3)
   036C C6s00r09            464 	lda	_sincosf_f_1_1
   036F C7s00r00            465 	sta	___fsmul_PARM_2
   0372 C6s00r0A            466 	lda	(_sincosf_f_1_1 + 1)
   0375 C7s00r01            467 	sta	(___fsmul_PARM_2 + 1)
   0378 C6s00r0B            468 	lda	(_sincosf_f_1_1 + 2)
   037B C7s00r02            469 	sta	(___fsmul_PARM_2 + 2)
   037E C6s00r0C            470 	lda	(_sincosf_f_1_1 + 3)
   0381 C7s00r03            471 	sta	(___fsmul_PARM_2 + 3)
   0384 CDs00r00            472 	jsr	___fsmul
   0387 C7s00r14            473 	sta	(_sincosf_g_1_1 + 3)
   038A CFs00r13            474 	stx	(_sincosf_g_1_1 + 2)
   038D B6*00               475 	lda	*__ret2
   038F C7s00r12            476 	sta	(_sincosf_g_1_1 + 1)
   0392 B6*00               477 	lda	*__ret3
                            478 ;../sincosf.c:81: if(g>EPS2) //Used to be if(fabsf(f)>EPS)
   0394 C7s00r11            479 	sta	_sincosf_g_1_1
   0397 C7s00r00            480 	sta	___fsgt_PARM_1
   039A C6s00r12            481 	lda	(_sincosf_g_1_1 + 1)
   039D C7s00r01            482 	sta	(___fsgt_PARM_1 + 1)
   03A0 C6s00r13            483 	lda	(_sincosf_g_1_1 + 2)
   03A3 C7s00r02            484 	sta	(___fsgt_PARM_1 + 2)
   03A6 C6s00r14            485 	lda	(_sincosf_g_1_1 + 3)
   03A9 C7s00r03            486 	sta	(___fsgt_PARM_1 + 3)
   03AC A6 33               487 	lda	#0x33
   03AE C7s00r00            488 	sta	___fsgt_PARM_2
   03B1 A6 7F               489 	lda	#0x7F
   03B3 C7s00r01            490 	sta	(___fsgt_PARM_2 + 1)
   03B6 A6 FF               491 	lda	#0xFF
   03B8 C7s00r02            492 	sta	(___fsgt_PARM_2 + 2)
   03BB A6 F3               493 	lda	#0xF3
   03BD C7s00r03            494 	sta	(___fsgt_PARM_2 + 3)
   03C0 CDs00r00            495 	jsr	___fsgt
   03C3 B7*00               496 	sta	*_sincosf_sloc0_1_0
   03C5 3D*00               497 	tst	*_sincosf_sloc0_1_0
   03C7 26 03               498 	bne	00133$
   03C9 CCs05r57            499 	jmp	00114$
   03CC                     500 00133$:
                            501 ;../sincosf.c:83: r=(((r4*g+r3)*g+r2)*g+r1)*g;
   03CC A6 36               502 	lda	#0x36
   03CE C7s00r00            503 	sta	___fsmul_PARM_1
   03D1 A6 2E               504 	lda	#0x2E
   03D3 C7s00r01            505 	sta	(___fsmul_PARM_1 + 1)
   03D6 A6 9C               506 	lda	#0x9C
   03D8 C7s00r02            507 	sta	(___fsmul_PARM_1 + 2)
   03DB A6 5B               508 	lda	#0x5B
   03DD C7s00r03            509 	sta	(___fsmul_PARM_1 + 3)
   03E0 C6s00r11            510 	lda	_sincosf_g_1_1
   03E3 C7s00r00            511 	sta	___fsmul_PARM_2
   03E6 C6s00r12            512 	lda	(_sincosf_g_1_1 + 1)
   03E9 C7s00r01            513 	sta	(___fsmul_PARM_2 + 1)
   03EC C6s00r13            514 	lda	(_sincosf_g_1_1 + 2)
   03EF C7s00r02            515 	sta	(___fsmul_PARM_2 + 2)
   03F2 C6s00r14            516 	lda	(_sincosf_g_1_1 + 3)
   03F5 C7s00r03            517 	sta	(___fsmul_PARM_2 + 3)
   03F8 CDs00r00            518 	jsr	___fsmul
   03FB C7s00r03            519 	sta	(___fsadd_PARM_1 + 3)
   03FE CFs00r02            520 	stx	(___fsadd_PARM_1 + 2)
   0401 B6*00               521 	lda	*__ret2
   0403 C7s00r01            522 	sta	(___fsadd_PARM_1 + 1)
   0406 B6*00               523 	lda	*__ret3
   0408 C7s00r00            524 	sta	___fsadd_PARM_1
   040B A6 B9               525 	lda	#0xB9
   040D C7s00r00            526 	sta	___fsadd_PARM_2
   0410 A6 4F               527 	lda	#0x4F
   0412 C7s00r01            528 	sta	(___fsadd_PARM_2 + 1)
   0415 A6 B2               529 	lda	#0xB2
   0417 C7s00r02            530 	sta	(___fsadd_PARM_2 + 2)
   041A A6 22               531 	lda	#0x22
   041C C7s00r03            532 	sta	(___fsadd_PARM_2 + 3)
   041F CDs00r00            533 	jsr	___fsadd
   0422 C7s00r03            534 	sta	(___fsmul_PARM_1 + 3)
   0425 CFs00r02            535 	stx	(___fsmul_PARM_1 + 2)
   0428 B6*00               536 	lda	*__ret2
   042A C7s00r01            537 	sta	(___fsmul_PARM_1 + 1)
   042D B6*00               538 	lda	*__ret3
   042F C7s00r00            539 	sta	___fsmul_PARM_1
   0432 C6s00r11            540 	lda	_sincosf_g_1_1
   0435 C7s00r00            541 	sta	___fsmul_PARM_2
   0438 C6s00r12            542 	lda	(_sincosf_g_1_1 + 1)
   043B C7s00r01            543 	sta	(___fsmul_PARM_2 + 1)
   043E C6s00r13            544 	lda	(_sincosf_g_1_1 + 2)
   0441 C7s00r02            545 	sta	(___fsmul_PARM_2 + 2)
   0444 C6s00r14            546 	lda	(_sincosf_g_1_1 + 3)
   0447 C7s00r03            547 	sta	(___fsmul_PARM_2 + 3)
   044A CDs00r00            548 	jsr	___fsmul
   044D C7s00r03            549 	sta	(___fsadd_PARM_1 + 3)
   0450 CFs00r02            550 	stx	(___fsadd_PARM_1 + 2)
   0453 B6*00               551 	lda	*__ret2
   0455 C7s00r01            552 	sta	(___fsadd_PARM_1 + 1)
   0458 B6*00               553 	lda	*__ret3
   045A C7s00r00            554 	sta	___fsadd_PARM_1
   045D A6 3C               555 	lda	#0x3C
   045F C7s00r00            556 	sta	___fsadd_PARM_2
   0462 A6 08               557 	lda	#0x08
   0464 C7s00r01            558 	sta	(___fsadd_PARM_2 + 1)
   0467 A6 87               559 	lda	#0x87
   0469 C7s00r02            560 	sta	(___fsadd_PARM_2 + 2)
   046C A6 3E               561 	lda	#0x3E
   046E C7s00r03            562 	sta	(___fsadd_PARM_2 + 3)
   0471 CDs00r00            563 	jsr	___fsadd
   0474 C7s00r03            564 	sta	(___fsmul_PARM_1 + 3)
   0477 CFs00r02            565 	stx	(___fsmul_PARM_1 + 2)
   047A B6*00               566 	lda	*__ret2
   047C C7s00r01            567 	sta	(___fsmul_PARM_1 + 1)
   047F B6*00               568 	lda	*__ret3
   0481 C7s00r00            569 	sta	___fsmul_PARM_1
   0484 C6s00r11            570 	lda	_sincosf_g_1_1
   0487 C7s00r00            571 	sta	___fsmul_PARM_2
   048A C6s00r12            572 	lda	(_sincosf_g_1_1 + 1)
   048D C7s00r01            573 	sta	(___fsmul_PARM_2 + 1)
   0490 C6s00r13            574 	lda	(_sincosf_g_1_1 + 2)
   0493 C7s00r02            575 	sta	(___fsmul_PARM_2 + 2)
   0496 C6s00r14            576 	lda	(_sincosf_g_1_1 + 3)
   0499 C7s00r03            577 	sta	(___fsmul_PARM_2 + 3)
   049C CDs00r00            578 	jsr	___fsmul
   049F C7s00r03            579 	sta	(___fsadd_PARM_1 + 3)
   04A2 CFs00r02            580 	stx	(___fsadd_PARM_1 + 2)
   04A5 B6*00               581 	lda	*__ret2
   04A7 C7s00r01            582 	sta	(___fsadd_PARM_1 + 1)
   04AA B6*00               583 	lda	*__ret3
   04AC C7s00r00            584 	sta	___fsadd_PARM_1
   04AF A6 BE               585 	lda	#0xBE
   04B1 C7s00r00            586 	sta	___fsadd_PARM_2
   04B4 A6 2A               587 	lda	#0x2A
   04B6 C7s00r01            588 	sta	(___fsadd_PARM_2 + 1)
   04B9 A6 AA               589 	lda	#0xAA
   04BB C7s00r02            590 	sta	(___fsadd_PARM_2 + 2)
   04BE A6 A4               591 	lda	#0xA4
   04C0 C7s00r03            592 	sta	(___fsadd_PARM_2 + 3)
   04C3 CDs00r00            593 	jsr	___fsadd
   04C6 C7s00r03            594 	sta	(___fsmul_PARM_1 + 3)
   04C9 CFs00r02            595 	stx	(___fsmul_PARM_1 + 2)
   04CC B6*00               596 	lda	*__ret2
   04CE C7s00r01            597 	sta	(___fsmul_PARM_1 + 1)
   04D1 B6*00               598 	lda	*__ret3
   04D3 C7s00r00            599 	sta	___fsmul_PARM_1
   04D6 C6s00r11            600 	lda	_sincosf_g_1_1
   04D9 C7s00r00            601 	sta	___fsmul_PARM_2
   04DC C6s00r12            602 	lda	(_sincosf_g_1_1 + 1)
   04DF C7s00r01            603 	sta	(___fsmul_PARM_2 + 1)
   04E2 C6s00r13            604 	lda	(_sincosf_g_1_1 + 2)
   04E5 C7s00r02            605 	sta	(___fsmul_PARM_2 + 2)
   04E8 C6s00r14            606 	lda	(_sincosf_g_1_1 + 3)
   04EB C7s00r03            607 	sta	(___fsmul_PARM_2 + 3)
   04EE CDs00r00            608 	jsr	___fsmul
   04F1 C7s00r03            609 	sta	(___fsmul_PARM_2 + 3)
   04F4 CFs00r02            610 	stx	(___fsmul_PARM_2 + 2)
   04F7 B6*00               611 	lda	*__ret2
   04F9 C7s00r01            612 	sta	(___fsmul_PARM_2 + 1)
   04FC B6*00               613 	lda	*__ret3
   04FE C7s00r00            614 	sta	___fsmul_PARM_2
                            615 ;../sincosf.c:84: f+=f*r;
   0501 C6s00r09            616 	lda	_sincosf_f_1_1
   0504 C7s00r00            617 	sta	___fsmul_PARM_1
   0507 C6s00r0A            618 	lda	(_sincosf_f_1_1 + 1)
   050A C7s00r01            619 	sta	(___fsmul_PARM_1 + 1)
   050D C6s00r0B            620 	lda	(_sincosf_f_1_1 + 2)
   0510 C7s00r02            621 	sta	(___fsmul_PARM_1 + 2)
   0513 C6s00r0C            622 	lda	(_sincosf_f_1_1 + 3)
   0516 C7s00r03            623 	sta	(___fsmul_PARM_1 + 3)
   0519 CDs00r00            624 	jsr	___fsmul
   051C C7s00r03            625 	sta	(___fsadd_PARM_2 + 3)
   051F CFs00r02            626 	stx	(___fsadd_PARM_2 + 2)
   0522 B6*00               627 	lda	*__ret2
   0524 C7s00r01            628 	sta	(___fsadd_PARM_2 + 1)
   0527 B6*00               629 	lda	*__ret3
   0529 C7s00r00            630 	sta	___fsadd_PARM_2
   052C C6s00r09            631 	lda	_sincosf_f_1_1
   052F C7s00r00            632 	sta	___fsadd_PARM_1
   0532 C6s00r0A            633 	lda	(_sincosf_f_1_1 + 1)
   0535 C7s00r01            634 	sta	(___fsadd_PARM_1 + 1)
   0538 C6s00r0B            635 	lda	(_sincosf_f_1_1 + 2)
   053B C7s00r02            636 	sta	(___fsadd_PARM_1 + 2)
   053E C6s00r0C            637 	lda	(_sincosf_f_1_1 + 3)
   0541 C7s00r03            638 	sta	(___fsadd_PARM_1 + 3)
   0544 CDs00r00            639 	jsr	___fsadd
   0547 C7s00r0C            640 	sta	(_sincosf_f_1_1 + 3)
   054A CFs00r0B            641 	stx	(_sincosf_f_1_1 + 2)
   054D B6*00               642 	lda	*__ret2
   054F C7s00r0A            643 	sta	(_sincosf_f_1_1 + 1)
   0552 B6*00               644 	lda	*__ret3
   0554 C7s00r09            645 	sta	_sincosf_f_1_1
   0557                     646 00114$:
                            647 ;../sincosf.c:86: return (sign?-f:f);
   0557 C6s00r1B            648 	lda	_sincosf_sign_1_1
   055A 27 18               649 	beq	00117$
   055C                     650 00134$:
   055C C6s00r0C            651 	lda	(_sincosf_f_1_1 + 3)
   055F B7*04               652 	sta	*(_sincosf_sloc1_1_0 + 3)
   0561 C6s00r0B            653 	lda	(_sincosf_f_1_1 + 2)
   0564 B7*03               654 	sta	*(_sincosf_sloc1_1_0 + 2)
   0566 C6s00r0A            655 	lda	(_sincosf_f_1_1 + 1)
   0569 B7*02               656 	sta	*(_sincosf_sloc1_1_0 + 1)
   056B C6s00r09            657 	lda	_sincosf_f_1_1
   056E A8 80               658 	eor	#0x80
   0570 B7*01               659 	sta	*_sincosf_sloc1_1_0
   0572 20 14               660 	bra	00118$
   0574                     661 00117$:
   0574 C6s00r09            662 	lda	_sincosf_f_1_1
   0577 B7*01               663 	sta	*_sincosf_sloc1_1_0
   0579 C6s00r0A            664 	lda	(_sincosf_f_1_1 + 1)
   057C B7*02               665 	sta	*(_sincosf_sloc1_1_0 + 1)
   057E C6s00r0B            666 	lda	(_sincosf_f_1_1 + 2)
   0581 B7*03               667 	sta	*(_sincosf_sloc1_1_0 + 2)
   0583 C6s00r0C            668 	lda	(_sincosf_f_1_1 + 3)
   0586 B7*04               669 	sta	*(_sincosf_sloc1_1_0 + 3)
   0588                     670 00118$:
   0588 4E*01*00            671 	mov	*_sincosf_sloc1_1_0,*__ret3
   058B 4E*02*00            672 	mov	*(_sincosf_sloc1_1_0 + 1),*__ret2
   058E BE*03               673 	ldx	*(_sincosf_sloc1_1_0 + 2)
   0590 B6*04               674 	lda	*(_sincosf_sloc1_1_0 + 3)
   0592                     675 00115$:
   0592 81                  676 	rts
                            677 	.area CSEG (CODE)
                            678 	.area CONST   (CODE)
                            679 	.area XINIT
                            680 	.area CABS    (ABS,CODE)
